XAS99 CROSS-ASSEMBLER   VERSION 3.6.5
     **** ****     > stevie_b9.asm
0001               ********************************************************************************
0002               *   Stevie
0003               *   Modern Programming Editor for the Texas Instruments TI-99/4a Home Computer.
0004               *   Copyright (C) 2018-2025 / Filip van Vooren
0005               *
0006               *   This program is free software: you can redistribute it and/or modify
0007               *   it under the terms of the GNU General Public License as published by
0008               *   the Free Software Foundation, either version 3 of the License, or
0009               *   (at your option) any later version.
0010               *
0011               *   This program is distributed in the hope that it will be useful,
0012               *   but WITHOUT ANY WARRANTY; without even the implied warranty of
0013               *   MERCHANTABILITY or FITNESS FOR A PARTICULAR PURPOSE.  See the
0014               *   GNU General Public License for more details.
0015               *
0016               *   You should have received a copy of the GNU General Public License
0017               *   along with this program.  If not, see <https://www.gnu.org/licenses/>.
0018               ********************************************************************************
0019               * File: stevie_b9.asm
0020               *
0021               * Bank 9 "Jackalope Basic"
0022               * Jackalope Basic by Alex Johnson (compuwiz@gmail.com)
0023               ********************************************************************************
0024                       aorg  >6000
0025                       save  >6000,>8000           ; Save bank
0026               
0027                       aorg  >600a
0028 600A 0460  28         b     @INIT                 ; Start Jackalope Basic
     600C 795A     
0029                       aorg  >600e
0030 600E 04E0  34         clr   @bank8.rom            ; Return to Jackalope integration layer
     6010 6010     
0031               ********************************************************************
0032               
0033               ***************************************************************
0034               * Step 1: Include Jackalope Basic
0035               ********|*****|*********************|**************************
0036                       copy  "equ.romseq.asm"      ; Get ROM bank order
     **** ****     > equ.romseq.asm
0001               * FILE......: equ.romseq.asm
0002               * Purpose...: Equates with CPU write addresses for switching banks
0003               
0004               *--------------------------------------------------------------
0005               * ROM 8K/4K banks. Bank order (non-inverted)
0006               *--------------------------------------------------------------
0007      6000     bank0.rom                 equ  >6000   ; Jill
0008      6002     bank1.rom                 equ  >6002   ; James
0009      6004     bank2.rom                 equ  >6004   ; Jacky
0010      6006     bank3.rom                 equ  >6006   ; John
0011      6008     bank4.rom                 equ  >6008   ; Janine
0012      600A     bank5.rom                 equ  >600a   ; Jumbo
0013      600C     bank6.rom                 equ  >600c   ; Jenifer
0014      600E     bank7.rom                 equ  >600e   ; Jonas
0015      6010     bank8.rom                 equ  >6010   ; Jackalope
0016      6012     bank9.rom                 equ  >6012   ; free
0017      6014     banka.rom                 equ  >6014   ; free
0018      6016     bankb.rom                 equ  >6016   ; free
0019      6018     bankc.rom                 equ  >6018   ; free
0020      601A     bankd.rom                 equ  >601a   ; free
0021      601C     banke.rom                 equ  >601c   ; free
0022      601E     bankf.rom                 equ  >601e   ; free
0023               *--------------------------------------------------------------
0024               * RAM 4K banks (Only valid in advanced mode FG99)
0025               *--------------------------------------------------------------
0026      6800     bank0.ram                 equ  >6800   ; Jill
0027      6802     bank1.ram                 equ  >6802   ; James
0028      6804     bank2.ram                 equ  >6804   ; Jacky
0029      6806     bank3.ram                 equ  >6806   ; John
0030      6808     bank4.ram                 equ  >6808   ; Janine
0031      680A     bank5.ram                 equ  >680a   ; Jumbo
0032      680C     bank6.ram                 equ  >680c   ; Jenifer
0033      680E     bank7.ram                 equ  >680e   ; Jonas
0034      6810     bank8.ram                 equ  >6810   ; Jackalope
0035      6812     bank9.ram                 equ  >6812   ; free
0036      6814     banka.ram                 equ  >6814   ; free
0037      6816     bankb.ram                 equ  >6816   ; free
0038      6818     bankc.ram                 equ  >6818   ; free
0039      681A     bankd.ram                 equ  >681a   ; free
0040      681C     banke.ram                 equ  >681c   ; free
0041      681E     bankf.ram                 equ  >681e   ; free
                   < stevie_b9.asm
0037                       copy  "jbasic.asm"          ; Jackalope Basic by Alex Johnson
     **** ****     > jbasic.asm
0001               * FILE......: jbasic.asm
0002               * Purpose...: Stevie Editor - Jackalope Basic interpreter
0003               
0004               * Author: Alex Johnson (compuwiz@gmail.com)
0005               
0006               **************************************************************************************************
0007               
0008               * To add a new keyword, add to STABLE or FTABLE, reduce TSYS, insert at end of either statement or
0009               *    function tokens, and insert in same position in keyword table and either KEYWRD or KEYARG
0010               * Statement address table
0011 6012 6556     STABLE DATA SSYS
0012 6014 6564            DATA SCLR
0013 6016 659A            DATA SNEW
0014 6018 65BE            DATA SLIST
0015 601A 6738            DATA SRUN
0016 601C 6760            DATA SGOTO
0017 601E 6764            DATA SGOSUB
0018 6020 67AC            DATA SRETUR
0019 6022 67EE            DATA SEND
0020 6024 67FA            DATA SIF
0021 6026 6880            DATA SFOR
0022 6028 690E            DATA SNEXT
0023 602A 697A            DATA SPRINT
0024 602C 6A16            DATA SINPUT
0025 602E 6A3C            DATA SGET
0026 6030 6AAC            DATA SDPOKE
0027 6032 6AC6            DATA SVPOKE
0028 6034 6A76            DATA SPOKE
0029 6036 6AE8            DATA SLOAD
0030 6038 6C4A            DATA SSAVE
0031 603A 6E68            DATA SREM
0032 603C 705E            DATA SWAIT
0033 603E 7076            DATA SCHAR
0034 6040 712A            DATA SCLEAR
0035 6042 7144            DATA SCOLOR
0036 6044 718C            DATA SLOCAT
0037 6046 71C2            DATA SSCREE
0038 6048 71DA            DATA SINIT
0039 604A 7202            DATA SMAGNI
0040 604C 7224            DATA SSPRIT
0041 604E 72B0            DATA SJOYST
0042 6050 7336            DATA SSOUND
0043 6052 73A6            DATA SNOISE
0044 6054 6E78            DATA SLET    ; represents 27 tokens: A-Z, @
0045               * numeric, expression, NOT, DPEEK(, VPEEK(, PEEK(, RND, LEN(, STR$(, VAL(, ASC( are part of LET
0046 6056 702C            DATA SINCRE  ; represents 26 tokens: A-Z
0047 6058 7034            DATA SDECRE  ; represents 26 tokens: A-Z
0048               * Function address table
0049 605A 73EE     FTABLE DATA FEQUAL
0050 605C 73F6            DATA FUNEQU
0051 605E 73FE            DATA FGREQU
0052 6060 7406            DATA FLTEQU
0053 6062 73DE            DATA FGREAT
0054 6064 73E6            DATA FLESST
0055 6066 7410            DATA FADD
0056 6068 7416            DATA FSUB
0057 606A 741C            DATA FMULT
0058 606C 7446            DATA FDIV
0059 606E 7468            DATA FMOD
0060 6070 7478            DATA FPOWER
0061 6072 74D0            DATA FBWAND
0062 6074 74E0            DATA FBWXOR
0063 6076 74DA            DATA FBWOR
0064 6078 74E6            DATA FSHIFT
0065               * Statement token values
0066      0071     TSYS   EQU >71
0067      0072     TCLR   EQU TSYS+1
0068      0073     TNEW   EQU TCLR+1
0069      0074     TLIST  EQU TNEW+1
0070      0075     TRUN   EQU TLIST+1
0071      0076     TGOTO  EQU TRUN+1
0072      0077     TGOSUB EQU TGOTO+1
0073      0078     TRETUR EQU TGOSUB+1
0074      0079     TEND   EQU TRETUR+1
0075      007A     TIF    EQU TEND+1
0076      007B     TFOR   EQU TIF+1
0077      007C     TNEXT  EQU TFOR+1
0078      007D     TPRINT EQU TNEXT+1
0079      007E     TINPUT EQU TPRINT+1
0080      007F     TGET   EQU TINPUT+1
0081      0080     TDPOKE EQU TGET+1
0082      0081     TVPOKE EQU TDPOKE+1
0083      0082     TPOKE  EQU TVPOKE+1
0084      0083     TLOAD  EQU TPOKE+1
0085      0084     TSAVE  EQU TLOAD+1
0086      0085     TREM   EQU TSAVE+1
0087      0086     TWAIT  EQU TREM+1
0088      0087     TCHAR  EQU TWAIT+1
0089      0088     TCLEAR EQU TCHAR+1
0090      0089     TCOLOR EQU TCLEAR+1
0091      008A     TLOCAT EQU TCOLOR+1
0092      008B     TSCREE EQU TLOCAT+1
0093      008C     TINIT  EQU TSCREE+1
0094      008D     TMAGNI EQU TINIT+1
0095      008E     TSPRIT EQU TMAGNI+1
0096      008F     TJOYST EQU TSPRIT+1
0097      0090     TSOUND EQU TJOYST+1
0098      0091     TNOISE EQU TSOUND+1
0099      001A     VARAT  EQU 26   ; position of @ in TLET and also number of variables
0100      00E6     TDEC   EQU >0100-VARAT   ; special token placeholder for 26 variables
0101      00CC     TINC   EQU TDEC-VARAT    ; special token placeholder for 26 variables
0102      00B1     TLET   EQU TINC-VARAT-1  ; special token placeholder for 26 variables and @
0103               *                         TLET+VARAT overloaded to call SLET but also handle @=, @+, @-
0104               * Function token values
0105      0092     TEQUAL EQU TNOISE+1
0106      0093     TUNEQU EQU TEQUAL+1
0107      0094     TGTEQU EQU TUNEQU+1
0108      0095     TLTEQU EQU TGTEQU+1
0109      0096     TGREAT EQU TLTEQU+1
0110      0097     TLESST EQU TGREAT+1
0111      0098     TADD   EQU TLESST+1
0112      0099     TSUB   EQU TADD+1
0113      009A     TMULT  EQU TSUB+1
0114      009B     TDIV   EQU TMULT+1
0115      009C     TMOD   EQU TDIV+1
0116      009D     TPOWER EQU TMOD+1
0117      009E     TBWAND EQU TPOWER+1
0118      009F     TBWXOR EQU TBWAND+1
0119      00A0     TBWOR  EQU TBWXOR+1
0120      00A1     TSHIFT EQU TBWOR+1
0121               * Other token values
0122      00A2     TTO    EQU TSHIFT+1  ; part of FOR, LIST
0123      00A3     TTHEN  EQU TTO+1     ; part of IF
0124      00A4     TSTEP  EQU TTHEN+1   ; part of FOR
0125      00A5     TCHR   EQU TSTEP+1   ; part of PRINT
0126      00A6     TNOT   EQU TCHR+1    ; part of LET
0127      00A7     TDPEEK EQU TNOT+1    ; part of LET
0128      00A8     TVPEEK EQU TDPEEK+1  ; part of LET
0129      00A9     TPEEK  EQU TVPEEK+1  ; part of LET
0130      00AA     TRND   EQU TPEEK+1   ; part of LET
0131      00AB     TLEN   EQU TRND+1    ; part of LET
0132      00AC     TSTR   EQU TLEN+1    ; part of PRINT
0133      00AD     TVAL   EQU TSTR+1    ; part of LET
0134      00AE     TASC   EQU TVAL+1    ; part of LET
0135      00AF     TADDR  EQU TASC+1
0136      00B0     TCONST EQU TADDR+1
0137      00B0     TLAST  EQU TCONST
0138               * Keyword table
0139               * Statement keywords: should use -'text' but Asm994a has a bug with -
0140               *                     so must use explicit inversion of last character
0141               *                     if R14 LT then NEG R14
0142 607A 5359     KSYS   TEXT 'SY'     ; -'SYS'
0143 607C AC              BYTE >FF-'S'
0144 607D   43     KCLR   TEXT 'CL'     ; -'CLR'
     607E 4C       
0145 607F   AD            BYTE >FF-'R'
0146 6080 4E45     KNEW   TEXT 'NE'     ; -'NEW'
0147 6082 A8              BYTE >FF-'W'
0148 6083   4C     KLIST  TEXT 'LIS'    ; -'LIST'
     6084 4953     
0149 6086 AB              BYTE >FF-'T'
0150 6087   52     KRUN   TEXT 'RU'     ; -'RUN'
     6088 55       
0151 6089   B1            BYTE >FF-'N'
0152 608A 474F     KGOTO  TEXT 'GOT'    ; -'GOTO'
     608C 54       
0153 608D   B0            BYTE >FF-'O'
0154 608E 474F     KGOSUB TEXT 'GOSU'   ; -'GOSUB'
     6090 5355     
0155 6092 BD              BYTE >FF-'B'
0156 6093   52     KRETUR TEXT 'RETUR'  ; -'RETURN'
     6094 4554     
     6096 5552     
0157 6098 B1              BYTE >FF-'N'
0158 6099   45     KEND   TEXT 'EN'     ; -'END'
     609A 4E       
0159 609B   BB            BYTE >FF-'D'
0160 609C 49       KIF    TEXT 'I'      ; -'IF'
0161 609D   B9            BYTE >FF-'F'
0162 609E 464F     KFOR   TEXT 'FO'     ; -'FOR'
0163 60A0 AD              BYTE >FF-'R'
0164 60A1   4E     KNEXT  TEXT 'NEX'    ; -'NEXT'
     60A2 4558     
0165 60A4 AB              BYTE >FF-'T'
0166 60A5   50     KPRINT TEXT 'PRIN'   ; -'PRINT'
     60A6 5249     
     60A8 4E       
0167 60A9   AB            BYTE >FF-'T'
0168 60AA 494E     KINPUT TEXT 'INPU'   ; -'INPUT'
     60AC 5055     
0169 60AE AB              BYTE >FF-'T'
0170 60AF   47     KGET   TEXT 'GE'     ; -'GET'
     60B0 45       
0171 60B1   AB            BYTE >FF-'T'
0172 60B2 4450     KDPOKE TEXT 'DPOK'   ; -'DPOKE'
     60B4 4F4B     
0173 60B6 BA              BYTE >FF-'E'
0174 60B7   56     KVPOKE TEXT 'VPOK'   ; -'VPOKE'
     60B8 504F     
     60BA 4B       
0175 60BB   BA            BYTE >FF-'E'
0176 60BC 504F     KPOKE  TEXT 'POK'    ; -'POKE'
     60BE 4B       
0177 60BF   BA            BYTE >FF-'E'
0178 60C0 4C4F     KLOAD  TEXT 'LOA'    ; -'LOAD'
     60C2 41       
0179 60C3   BB            BYTE >FF-'D'
0180 60C4 5341     KSAVE  TEXT 'SAV'    ; -'SAVE'
     60C6 56       
0181 60C7   BA            BYTE >FF-'E'
0182 60C8 5245     KREM   TEXT 'RE'     ; -'REM'
0183 60CA B2              BYTE >FF-'M'
0184 60CB   57     KWAIT  TEXT 'WAI'    ; -'WAIT'
     60CC 4149     
0185 60CE AB              BYTE >FF-'T'
0186 60CF   43     KCHAR  TEXT 'CHA'    ; -'CHAR'
     60D0 4841     
0187 60D2 AD              BYTE >FF-'R'
0188 60D3   43     KCLEAR TEXT 'CLEA'   ; -'CLEAR'
     60D4 4C45     
     60D6 41       
0189 60D7   AD            BYTE >FF-'R'
0190 60D8 434F     KCOLOR TEXT 'COLO'   ; -'COLOR'
     60DA 4C4F     
0191 60DC AD              BYTE >FF-'R'
0192 60DD   4C     KLOCAT TEXT 'LOCAT'  ; -'LOCATE'
     60DE 4F43     
     60E0 4154     
0193 60E2 BA              BYTE >FF-'E'
0194 60E3   53     KSCREE TEXT 'SCREE'  ; -'SCREEN'
     60E4 4352     
     60E6 4545     
0195 60E8 B1              BYTE >FF-'N'
0196 60E9   49     KINIT  TEXT 'INI'   ; -'INIT'
     60EA 4E49     
0197 60EC AB              BYTE >FF-'T'
0198 60ED   4D     KMAGNI TEXT 'MAGNIF'  ; -'MAGNIFY'
     60EE 4147     
     60F0 4E49     
     60F2 46       
0199 60F3   A6            BYTE >FF-'Y'
0200 60F4 5350     KSPRIT TEXT 'SPRIT'  ; -'SPRITE'
     60F6 5249     
     60F8 54       
0201 60F9   BA            BYTE >FF-'E'
0202 60FA 4A4F     KJOYST TEXT 'JOYSTIC'  ; -'JOYSTICK'
     60FC 5953     
     60FE 5449     
     6100 43       
0203 6101   B4            BYTE >FF-'K'
0204 6102 534F     KSOUND TEXT 'SOUN'   ; -'SOUND'
     6104 554E     
0205 6106 BB              BYTE >FF-'D'
0206 6107   4E     KNOISE TEXT 'NOIS'   ; -'NOISE'
     6108 4F49     
     610A 53       
0207 610B   BA            BYTE >FF-'E'
0208               * Function keywords
0209 610C 00       KEQUAL TEXT ''       ; -'='
0210 610D   C2            BYTE >FF-'='
0211 610E 3C       KUNEQU TEXT '<'      ; -'<>'
0212 610F   C1            BYTE >FF-'>'
0213 6110 3E       KGTEQU TEXT '>'      ; -'>='
0214 6111   C2            BYTE >FF-'='
0215 6112 3C       KLTEQU TEXT '<'      ; -'<='
0216 6113   C2            BYTE >FF-'='
0217 6114 00       KGREAT TEXT ''       ; -'>'
0218 6115   C1            BYTE >FF-'>'
0219 6116 00       KLESST TEXT ''       ; -'<'
0220 6117   C3            BYTE >FF-'<'
0221 6118 00       KADD   TEXT ''       ; -'+'
0222 6119   D4            BYTE >FF-'+'
0223 611A 00       KSUB   TEXT ''       ; -'-'
0224 611B   D2            BYTE >FF-'-'
0225 611C 00       KMULT  TEXT ''       ; -'*'
0226 611D   D5            BYTE >FF-'*'
0227 611E 00       KDIV   TEXT ''       ; -'/'
0228 611F   D0            BYTE >FF-'/'
0229 6120 00       KMOD   TEXT ''       ; -'%'
0230 6121   DA            BYTE >FF-'%'
0231 6122 00       KPOWER TEXT ''       ; -'^'
0232 6123   A1            BYTE >FF-'^'
0233 6124 414E     KBWAND TEXT 'AN'     ; -'AND'
0234 6126 9B              BYTE >FF-'d'
0235 6127   58     KBWXOR TEXT 'XO'     ; -'XOR'
     6128 4F       
0236 6129   8D            BYTE >FF-'r'
0237 612A 4F       KBWOR  TEXT 'O'      ; -'OR'
0238 612B   AD            BYTE >FF-'R'
0239 612C 5348     KSHIFT TEXT 'SHIF'   ; -'SHIFT'
     612E 4946     
0240 6130 AB              BYTE >FF-'T'
0241               * Other keywords
0242 6131   54     KTO    TEXT 'T'      ; -'TO'
0243 6132 B0              BYTE >FF-'O'
0244 6133   54     KTHEN  TEXT 'THE'    ; -'THEN'
     6134 4845     
0245 6136 B1              BYTE >FF-'N'
0246 6137   53     KSTEP  TEXT 'STE'    ; -'STEP'
     6138 5445     
0247 613A AF              BYTE >FF-'P'
0248 613B   43     KCHR   TEXT 'CHR$'   ; -'CHR$(
     613C 4852     
     613E 24       
0249 613F   D7            BYTE >FF-'('
0250 6140 4E4F     KNOT   TEXT 'NO'     ; -'NOT'
0251 6142 AB              BYTE >FF-'T'
0252 6143   44     KDPEEK TEXT 'DPEEK'  ; -'DPEEK('
     6144 5045     
     6146 454B     
0253 6148 D7              BYTE >FF-'('
0254 6149   56     KVPEEK TEXT 'VPEEK'  ; -'VPEEK('
     614A 5045     
     614C 454B     
0255 614E D7              BYTE >FF-'('
0256 614F   50     KPEEK  TEXT 'PEEK'   ; -'PEEK('
     6150 4545     
     6152 4B       
0257 6153   D7            BYTE >FF-'('
0258 6154 524E     KRND   TEXT 'RN'     ; -'RND'
0259 6156 BB              BYTE >FF-'D'
0260 6157   4C     KLEN   TEXT 'LEN'    ; -'LEN('
     6158 454E     
0261 615A D7              BYTE >FF-'('
0262 615B   53     KSTR   TEXT 'STR$'   ; -'STR$('
     615C 5452     
     615E 24       
0263 615F   D7            BYTE >FF-'('
0264 6160 5641     KVAL   TEXT 'VAL'    ; -'VAL('
     6162 4C       
0265 6163   D7            BYTE >FF-'('
0266 6164 4153     KASC   TEXT 'ASC'    ; -'ASC('
     6166 43       
0267 6167   D7            BYTE >FF-'('
0268 6168 BF       KADDR  BYTE >FF-'@'  ; -'@'
0269 6169   00            BYTE 0
0270                      EVEN
0271 616A 607A     KEYWRD DATA KSYS,KCLR,KNEW,KLIST,KRUN,KGOTO,KGOSUB,KRETUR,KEND
     616C 607D     
     616E 6080     
     6170 6083     
     6172 6087     
     6174 608A     
     6176 608E     
     6178 6093     
     617A 6099     
0272 617C 609C            DATA KIF,KFOR,KNEXT,KPRINT,KINPUT,KGET,KDPOKE,KVPOKE
     617E 609E     
     6180 60A1     
     6182 60A5     
     6184 60AA     
     6186 60AF     
     6188 60B2     
     618A 60B7     
0273 618C 60BC            DATA KPOKE,KLOAD,KSAVE,KREM,KWAIT,KCHAR,KCLEAR,KCOLOR
     618E 60C0     
     6190 60C4     
     6192 60C8     
     6194 60CB     
     6196 60CF     
     6198 60D3     
     619A 60D8     
0274 619C 60DD            DATA KLOCAT,KSCREE,KINIT,KMAGNI,KSPRIT,KJOYST,KSOUND,KNOISE
     619E 60E3     
     61A0 60E9     
     61A2 60ED     
     61A4 60F4     
     61A6 60FA     
     61A8 6102     
     61AA 6107     
0275 61AC 610C     KEYARG DATA KEQUAL,KUNEQU,KGTEQU,KLTEQU,KGREAT,KLESST
     61AE 610E     
     61B0 6110     
     61B2 6112     
     61B4 6114     
     61B6 6116     
0276 61B8 6118            DATA KADD,KSUB,KMULT,KDIV,KMOD,KPOWER
     61BA 611A     
     61BC 611C     
     61BE 611E     
     61C0 6120     
     61C2 6122     
0277 61C4 6124            DATA KBWAND,KBWXOR,KBWOR,KSHIFT,KTO,KTHEN,KSTEP
     61C6 6127     
     61C8 612A     
     61CA 612C     
     61CC 6131     
     61CE 6133     
     61D0 6137     
0278 61D2 613B            DATA KCHR,KNOT,KDPEEK,KVPEEK,KPEEK,KRND,KLEN,KSTR,KVAL,KASC,KADDR
     61D4 6140     
     61D6 6143     
     61D8 6149     
     61DA 614F     
     61DC 6154     
     61DE 6157     
     61E0 615B     
     61E2 6160     
     61E4 6164     
     61E6 6168     
0279               KEYEND
0280               
0281      0000     R0 EQU 0
0282      0001     R1 EQU 1
0283      0002     R2 EQU 2
0284      0003     R3 EQU 3
0285      0004     R4 EQU 4
0286      0005     R5 EQU 5
0287      0006     R6 EQU 6
0288      0007     R7 EQU 7
0289      0008     R8 EQU 8
0290      0009     R9 EQU 9
0291      000A     R10 EQU 10
0292      000B     R11 EQU 11
0293      000C     R12 EQU 12
0294      000D     R13 EQU 13
0295      000E     R14 EQU 14
0296      000F     R15 EQU 15
0297               
0298               * start EXECUTION --------------------------------------
0299 61E8 028E  22 GETSTT CI R14,TSYS*>0100
     61EA 7100     
0300 61EC 1A1B  14        JL GETSTE          ; 00-70: unassigned (error)
0301 61EE 028E  22        CI R14,TDEC*>0100
     61F0 E600     
0302 61F2 1A03  14        JL GETST1
0303 61F4 020B  20        LI R11,SDECRE      ; E6-FF -> E6: decrement
     61F6 7034     
0304 61F8 1014  14        JMP DOSTMT
0305 61FA 028E  22 GETST1 CI R14,TINC*>0100
     61FC CC00     
0306 61FE 1A03  14        JL GETST2
0307 6200 020B  20        LI R11,SINCRE      ; CC-E5 -> CC: increment
     6202 702C     
0308 6204 100E  14        JMP DOSTMT
0309 6206 028E  22 GETST2 CI R14,TLET*>0100
     6208 B100     
0310 620A 1A03  14        JL GETST3
0311 620C 020B  20        LI R11,SLET        ; B2-CB -> B2: let
     620E 6E78     
0312 6210 1008  14        JMP DOSTMT
0313               *      fall through       ; 71-B1: literal statements
0314               * look up statement address from table
0315 6212 020F  20 GETST3 LI R15,TSYS*>0100
     6214 7100     
0316 6216 C30E  18        MOV R14,R12        ; never operate on R14 since the low byte must remain 00 at all times
0317 6218 730F  18        SB R15,R12         ; R14=R14-R15 (current token minus first token)
0318 621A 06CC  14        SWPB R12           ; put result in lower byte
0319 621C A30C  18        A R12,R12          ; double result (2 bytes per table entry)
0320 621E C2EC  34        MOV @STABLE(R12),R11  ; R11=*(STABLE+2*R12) (address of statement is R12th word in statement table)
     6220 6012     
0321 6222 045B  20 DOSTMT B *R11             ; all statements will branch to NXTSTT at the end so no need for BL
0322 6224 0460  28 GETSTE B @SYNERR
     6226 750E     
0323               * all statements branch here
0324 6228 06A0  28 NXTSTT BL @CHKCLR         ; check if CLEAR/FN4/break key is pressed
     622A 04B2     
0325 622C 1606  14        JNE NXTST0
0326 622E 0203  20        LI R3,BREAK        ; CLEAR/FN4/break key pressed
     6230 79FE     
0327 6232 06A0  32        BL @PRTNEG
     6234 792E     
0328 6236 0460  28        B @NXTCMD
     6238 6278     
0329 623A 06A0  32 NXTST0 BL @CHKEND         ; check if EOS/EOL (GETVC includes implicit CHRGET)
     623C 7658     
0330 623E 13F2  14        JEQ GETSTE         ; if 0/not at end marker then syntax error
0331 6240 028E  22        CI R14,':'*>0100
     6242 3A00     
0332 6244 1603  14        JNE NXTST1
0333 6246 06A0  28        BL @CHRGET         ; advance past colon
     6248 832C     
0334 624A 10CE  14        JMP GETSTT
0335               * if not colon then must be null for end of line
0336 624C C2A0  30 NXTST1 MOV @CURLIN,R10    ; R10 points to current line table entry's line number location
     624E 8320     
0337 6250 880A  30        C R10,@LINTOP
     6252 8322     
0338 6254 1304  14        JEQ NXTST2         ; if already at top, don't update
0339 6256 022A  22        AI R10,LTESIZ      ; move to start of next entry
     6258 0006     
0340 625A C80A  30        MOV R10,@CURLIN
     625C 8320     
0341 625E 05CA  14 NXTST2 INCT R10           ; R10 points to current line table entry's pointer location
0342 6260 C29A  26        MOV *R10,R10       ; update TXTPTR to new line pointer value
0343 6262 060A  14        DEC R10            ; backup for CHRGET
0344 6264 06A0  28        BL @CHRGET         ; preload character for GETSTT (skipping leading spaces)
     6266 832C     
0345 6268 8820  42        C @CURLIN,@LINTOP  ; see if program ended
     626A 8320     
     626C 8322     
0346 626E 16BC  14        JNE GETSTT         ; if not (current <> top) then get next statement
0347 6270 0203  20 NXTRDY LI R3,READY
     6272 7A04     
0348 6274 06A0  32        BL @PRTNEG         ; print READY message
     6276 792E     
0349 6278 06A0  32 NXTCMD BL @LINGET         ; wait for something to be typed
     627A 766E     
0350 627C 04CE  14        CLR R14
0351 627E DA4E  38        MOVB R14,@LINBUF(R9)  ; insert null at end of input
     6280 2100     
0352 6282 0201  20        LI R1,CENTER
     6284 0D00     
0353 6286 06A0  32        BL @CHROUT         ; print blank line
     6288 7720     
0354 628A C249  18        MOV R9,R9          ; set flags based on input length
0355 628C 13F5  14        JEQ NXTCMD         ; wait for something to be typed
0356               * fall through to tokenize an input line
0357               * 1. default line number -1, process line number if present (stash in TEMPF4 until done)
0358               * 2. process statement
0359               * 3. process other text until : or null, if : then 2, if null then done
0360 628E 070C  14 TOKIZE SETO R12           ; default line number is -1
0361 6290 020A  20        LI R10,LINBUF-1    ; work on line input buffer
     6292 20FF     
0362 6294 06A0  28        BL @CHRGET         ; advance to first non-space character
     6296 832C     
0363 6298 C14A  18        MOV R10,R5
0364 629A 06A0  32        BL @ATOI           ; get the number if present
     629C 7888     
0365               * must set R9 after ATOI since ATOI clobbers them
0366 629E 0209  20        LI R9,VDPBUF       ; output tokenized line into VDP buffer (not needed for screen work during this stage)
     62A0 2200     
0367 62A2 8285  18        C R5,R10
0368 62A4 1308  14        JEQ TOKSTT
0369 62A6 C308  18        MOV R8,R12         ; use the new line number
0370 62A8 111C  14        JLT TOKER1         ; if negative line number entered then SYNTAX ERROR
0371 62AA C285  18        MOV R5,R10         ; continue tokenizing after line number
0372 62AC D39A  26        MOVB *R10,R14      ; this code skips one optional space after the line number
0373 62AE 028E  22        CI R14,CSPACE
     62B0 2000     
0374 62B2 1601  14        JNE TOKSTT
0375 62B4 058A  14        INC R10
0376 62B6 D39A  26 TOKSTT MOVB *R10,R14      ; advance to the next character (do not use CHRGET since it skips spaces)
0377 62B8 1379  14        JEQ TOKDEL         ; if end of line encountered and nothing but space so far then delete line
0378 62BA 04CF  14 TOKST0 CLR R15            ; entry point for "THEN statement" to avoid deleting line if statement is empty
0379 62BC 028E  22        CI R14,CSPACE
     62BE 2000     
0380 62C0 1603  14        JNE TOKST1
0381 62C2 DE4E  32        MOVB R14,*R9+      ; copy spaces
0382 62C4 058A  14        INC R10
0383 62C6 10F7  14        JMP TOKSTT         ; then look for arguments
0384 62C8 04C0  14 TOKST1 CLR R0             ; setup "saw LET keyword" flag
0385 62CA 04E0  26        CLR @TEMPF2        ; setup "statement is LET" flag
     62CC 833A     
0386 62CE 04E0  26        CLR @TEMPF3        ; setup "last token was LET" flag
     62D0 833C     
0387 62D2 028E  22        CI R14,'?'*>0100
     62D4 3F00     
0388 62D6 1606  14        JNE TOKL
0389 62D8 0206  20        LI R6,TPRINT       ; ? becomes PRINT token
     62DA 007D     
0390 62DC C10A  18        MOV R10,R4
0391 62DE 0584  14        INC R4             ; advance to next input buffer location
0392 62E0 103F  14        JMP TOKST7         ; save character and check for arguments
0393 62E2 1078  14 TOKER1 JMP TOKERR         ; tokenize routine too large, need intermediate jump point
0394 62E4 C10A  18 TOKL   MOV R10,R4         ; special case LET statement because it is not in the keyword table
0395 62E6 0584  14        INC R4
0396 62E8 028E  22        CI R14,'L'*>0100
     62EA 4C00     
0397 62EC 160D  14        JNE TOKST2
0398 62EE D3F4  28        MOVB *R4+,R15
0399 62F0 028F  22        CI R15,'E'*>0100
     62F2 4500     
0400 62F4 1609  14        JNE TOKST2
0401 62F6 D3F4  28        MOVB *R4+,R15
0402 62F8 028F  22        CI R15,'T'*>0100
     62FA 5400     
0403 62FC 1605  14        JNE TOKST2
0404 62FE C284  18        MOV R4,R10         ; keyword=LET, advance input pointer to end of word
0405 6300 060A  14        DEC R10            ; backup so CHRGET works properly
0406 6302 06A0  28        BL @CHRGET         ; keyword=LET, advance input pointer skipping spaces
     6304 832C     
0407 6306 0600  14        DEC R0             ; mark LET flag
0408 6308 0207  20 TOKST2 LI R7,'A'
     630A 0041     
0409 630C 028E  22        CI R14,'Z'*>0100
     630E 5A00     
0410 6310 1B61  14        JH TOKERR          ; if above Z then SYNTAX ERROR
0411 6312 028E  22        CI R14,'@'*>0100
     6314 4000     
0412 6316 1A5E  14        JL TOKERR          ; if below @ then SYNTAX ERROR
0413 6318 1332  14        JEQ TOKADR         ; if exactly @ then special case for address
0414 631A 058A  14        INC R10          **
0415 631C C20E  18        MOV R14,R8
0416 631E 06C8  14        SWPB R8
0417 6320 6207  18        S R7,R8            ; R8 contains variable index
0418 6322 D3DA  26        MOVB *R10,R15      ; peek at next character
0419 6324 028F  22        CI R15,'-'*>0100
     6326 2D00     
0420 6328 1330  14        JEQ TOKDEC         ; if letter- then DECREMENT token
0421 632A 028F  22        CI R15,'+'*>0100
     632C 2B00     
0422 632E 1330  14        JEQ TOKINC         ; if letter+ then INCREMENT token
0423 6330 028F  22        CI R15,'='*>0100
     6332 3D00     
0424 6334 1330  14        JEQ TOKLET         ; if letter= then LET token
0425 6336 060A  14        DEC R10            ; otherwise backup to start of word and look for a statement keyword
0426 6338 04C6  14        CLR R6             ; R6 is index into keyword table
0427 633A 0205  20        LI R5,KEYWRD       ; R5 is pointer into keyword table (R5=KEYWRD+2*R6, inc R6, inct R5)
     633C 616A     
0428 633E C10A  18 TOKST3 MOV R10,R4         ; work from a copy so we can repeat comparisons
0429 6340 C0D5  26        MOV *R5,R3         ; get the pointer out of the table
0430 6342 D3D3  26 TOKST4 MOVB *R3,R15
0431 6344 1108  14        JLT TOKST6         ; if negative then this is the last letter of a keyword
0432 6346 9CF4  38        CB *R4+,*R3+
0433 6348 13FC  14        JEQ TOKST4         ; if same then do another comparison
0434 634A 0586  14 TOKST5 INC R6             ; if not same then advance to next word
0435 634C 05C5  14        INCT R5            ; advance to next pointer
0436 634E 0285  22        CI R5,KEYARG
     6350 61AC     
0437 6352 1340  14        JEQ TOKERR         ; if past last statement then SYNTAX ERROR
0438 6354 10F4  14        JMP TOKST3         ; if more keywords then check the next one
0439 6356 054F  14 TOKST6 INV R15            ; flip last character to compare
0440 6358 93F4  28        CB *R4+,R15
0441 635A 16F7  14        JNE TOKST5
0442               * keyword matched on keyword number R6!
0443 635C 0226  22        AI R6,TSYS
     635E 0071     
0444 6360 C000  18 TOKST7 MOV R0,R0          ; set flags
0445 6362 1138  14        JLT TOKERR         ; if "saw LET keyword" flag is negative then SYNTAX ERROR
0446 6364 06C6  14        SWPB R6            ; R6 now contains the token value in high byte
0447 6366 DE46  32        MOVB R6,*R9+       ; insert token into tokenized line and advance tokenized line pointer
0448 6368 C284  18        MOV R4,R10         ; advance input buffer
0449               * insert special case for REM here
0450 636A 0286  22        CI R6,TREM*>0100
     636C 8500     
0451 636E 1634  14        JNE TOKARG         ; else look for arguments
0452 6370 DE7A  42 TOKREM MOVB *R10+,*R9+    ; if REM then copy until null
0453 6372 16FE  14        JNE TOKREM
0454 6374 060A  14        DEC R10
0455 6376 04CE  14        CLR R14
0456 6378 0460  28        B @TOKEND          ; reached end of line (R10/R14 need to be on the null)
     637A 64CA     
0457 637C 102D  14        JMP TOKARG
0458 637E 0206  20 TOKADR LI R6,TLET+26
     6380 00CB     
0459 6382 0580  14        INC R0             ; unmark "saw LET keyword" flag
0460 6384 C10A  18        MOV R10,R4
0461 6386 0584  14        INC R4
0462 6388 10EB  14        JMP TOKST7         ; finish up like any other statement
0463 638A 0206  20 TOKDEC LI R6,TDEC
     638C 00E6     
0464 638E 100A  14        JMP TOKVAR
0465 6390 0206  20 TOKINC LI R6,TINC
     6392 00CC     
0466 6394 1007  14        JMP TOKVAR
0467 6396 0206  20 TOKLET LI R6,TLET
     6398 00B1     
0468 639A 0620  26        DEC @TEMPF2        ; set "current statement is LET" flag
     639C 833A     
0469 639E 0620  26        DEC @TEMPF3        ; set "last token was LET" flag
     63A0 833C     
0470 63A2 0580  14        INC R0             ; unmark "saw LET keyword" flag
0471 63A4 A188  18 TOKVAR A R8,R6            ; add the variable index to the base token for LET/INC/DEC
0472 63A6 C10A  18        MOV R10,R4
0473 63A8 0584  14        INC R4
0474 63AA 10DA  14        JMP TOKST7         ; finish up like any other statement
0475 63AC C08C  18 TOKDEL MOV R12,R2         ; line number in arg
0476 63AE 06A0  32        BL @FINDLN         ; search for the line number in the line table
     63B0 7642     
0477 63B2 8642  26        C R2,*R9           ; check if this line exists
0478 63B4 160D  14        JNE TOKDE2         ; if not then no need to delete
0479 63B6 C0E0  30        MOV @LINTOP,R3     ; stop address
     63B8 8322     
0480 63BA C209  18        MOV R9,R8
0481 63BC 0228  22        AI R8,LTESIZ       ; advance to next entry
     63BE 0006     
0482 63C0 CE78  46 TOKDE1 MOV *R8+,*R9+      ; copy line number
0483 63C2 CE78  46        MOV *R8+,*R9+      ; copy code pointer
0484 63C4 80C8  18        C R8,R3            ; done when source is higher than old LINTOP, ie old LINTOP was copied
0485 63C6 12FC  14        JLE TOKDE1
0486 63C8 0223  22        AI R3,-LTESIZ      ; move LINTOP down by 1 table entry
     63CA FFFA     
0487 63CC C803  30        MOV R3,@LINTOP     ; save result
     63CE 8322     
0488 63D0 0460  28 TOKDE2 B @NXTCMD          ; when done deleting get a new command
     63D2 6278     
0489 63D4 0460  28 TOKERR B @SYNERR
     63D6 750E     
0490               
0491               TOKARG
0492 63D8 D39A  26 TOKAR0 MOVB *R10,R14
0493 63DA 1602  14        JNE TOKAR1
0494 63DC DE4E  32        MOVB R14,*R9+      ; copy null
0495 63DE 1075  14        JMP TOKEND         ; done with line
0496 63E0 028E  22 TOKAR1 CI R14,':'*>0100
     63E2 3A00     
0497 63E4 1603  14        JNE TOKAR2
0498 63E6 DE7A  42        MOVB *R10+,*R9+    ; copy colon and advance
0499 63E8 0460  28        B @TOKSTT          ; look for next statement (too far to jump)
     63EA 62B6     
0500 63EC 028E  22 TOKAR2 CI R14,CSPACE
     63EE 2000     
0501 63F0 1602  14        JNE TOKAR3
0502 63F2 DE7A  42        MOVB *R10+,*R9+    ; copy space
0503 63F4 10F1  14        JMP TOKARG         ; look for next arg
0504 63F6 020F  20 TOKAR3 LI R15,'"'*>0100
     63F8 2200     
0505 63FA 93CE  18        CB R14,R15
0506 63FC 160D  14        JNE TOKAR4
0507 63FE DE7A  42 TOKQU1 MOVB *R10+,*R9+    ; copy character
0508 6400 D39A  26        MOVB *R10,R14      ; read next character
0509 6402 1302  14        JEQ TOKQU2
0510 6404 93CE  18        CB R14,R15
0511 6406 16FB  14        JNE TOKQU1         ; if not closing quote or end of line then repeat
0512 6408 0609  14 TOKQU2 DEC R9             ; back up to last character
0513 640A D219  26        MOVB *R9,R8        ; re-read
0514 640C 0548  14        INV R8             ; flip
0515 640E DE48  32        MOVB R8,*R9+       ; write back and advance
0516 6410 93DA  26        CB *R10,R15        ; was last character a quote?
0517 6412 16E2  14        JNE TOKARG         ; if not then it was a null, do not increment line pointer
0518 6414 058A  14        INC R10            ; move past closing quote
0519 6416 10E0  14        JMP TOKARG         ; look for next arg
0520 6418 028E  22 TOKAR4 CI R14,'0'*>0100
     641A 3000     
0521 641C 1A12  14        JL TOKAR5
0522 641E 028E  22        CI R14,'9'*>0100
     6420 3900     
0523 6422 1B0F  14        JH TOKAR5
0524               * this is a TCONST
0525 6424 C3C9  18 TOKNUM MOV R9,R15         ; preserve tokenized line pointer across call to ATOI
0526 6426 C14A  18        MOV R10,R5
0527 6428 06A0  32        BL @ATOI           ; read number at R5 into R8 (destroys R0-9)
     642A 7888     
0528 642C C24F  18        MOV R15,R9         ; reinstate pointer
0529 642E 020F  20        LI R15,TCONST*>0100
     6430 B000     
0530 6432 DE4F  32        MOVB R15,*R9+      ; TCONST
0531 6434 DE48  32        MOVB R8,*R9+       ; constant high byte
0532 6436 06C8  14        SWPB R8
0533 6438 DE48  32        MOVB R8,*R9+       ; constant low byte
0534 643A C285  18        MOV R5,R10         ; advance to end of number
0535 643C 04E0  26        CLR @TEMPF3        ; clear "last token was LET" flag
     643E 833C     
0536 6440 10CB  14        JMP TOKAR0         ; look for next arg
0537 6442 028E  22 TOKAR5 CI R14,'-'*>0100
     6444 2D00     
0538 6446 1613  14        JNE TOKAR7
0539 6448 D820  42        MOVB @TEMPF2,@TEMPF2  ; check "current statement is LET" flag
     644A 833A     
     644C 833A     
0540 644E 13EA  14        JEQ TOKNUM         ; all other statements, this must be a negative constant
0541 6450 D820  42        MOVB @TEMPF3,@TEMPF3  ; check "last token was LET" flag
     6452 833C     
     6454 833C     
0542 6456 130B  14        JEQ TOKAR7         ; any other token, this must be an operator
0543 6458 058A  14        INC R10
0544 645A D3DA  26        MOVB *R10,R15      ; peek ahead at next character
0545 645C 028F  22        CI R15,'0'*>0100
     645E 3000     
0546 6460 1A05  14        JL TOKAR6          ; if not a digit, this must be an operator
0547 6462 028F  22        CI R15,'9'*>0100
     6464 3900     
0548 6466 1B02  14        JH TOKAR6          ; if not a digit, this must be an operator
0549 6468 060A  14        DEC R10            ; backup to the negative sign
0550 646A 10DC  14        JMP TOKNUM         ; treat as a negative constant
0551 646C 060A  14 TOKAR6 DEC R10            ; fixup pointer from peeking ahead
0552               
0553               * if we get this far it is time to check if this is a keyword (including operator symbols)
0554 646E 0206  20 TOKAR7 LI R6,TEQUAL-TSYS  ; R6 is index into keyword table
     6470 0021     
0555 6472 0205  20        LI R5,KEYARG       ; R5 is pointer into keyword table (R5=KEYWRD+2*R6, inc R6, inct R5)
     6474 61AC     
0556 6476 C10A  18 TOKFN1 MOV R10,R4         ; work from a copy so we can repeat comparisons
0557 6478 C0D5  26        MOV *R5,R3         ; get the pointer out of the table
0558 647A D3D3  26 TOKFN2 MOVB *R3,R15
0559 647C 1108  14        JLT TOKFN4         ; if negative then this is the last letter of a keyword
0560 647E 9CF4  38        CB *R4+,*R3+
0561 6480 13FC  14        JEQ TOKFN2         ; if same then do another comparison
0562 6482 0586  14 TOKFN3 INC R6             ; if not same then advance to next word
0563 6484 05C5  14        INCT R5            ; advance to next pointer
0564 6486 0285  22        CI R5,KEYEND
     6488 61E8     
0565 648A 131B  14        JEQ TOKSAV         ; if past last keyword then copy character
0566 648C 10F4  14        JMP TOKFN1         ; if more keywords then check the next one
0567 648E 054F  14 TOKFN4 INV R15            ; flip last character to compare
0568 6490 93F4  28        CB *R4+,R15
0569 6492 16F7  14        JNE TOKFN3
0570               * keyword matched on keyword number R6!
0571 6494 0226  22        AI R6,TSYS
     6496 0071     
0572 6498 06C6  14        SWPB R6            ; R6 now contains the token value in high byte
0573 649A DE46  32        MOVB R6,*R9+       ; insert token into tokenized line and advance tokenized line pointer
0574 649C 04E0  26        CLR @TEMPF3        ; clear "last token was LET" flag
     649E 833C     
0575 64A0 0286  22        CI R6,TSUB*>0100
     64A2 9900     
0576 64A4 1602  14        JNE TOKFN5         ; if token is not operator minus then skip setting the flag
0577 64A6 0620  26        DEC @TEMPF3        ; set "last token was LET or operator minus" flag
     64A8 833C     
0578 64AA C284  18 TOKFN5 MOV R4,R10         ; advance input buffer
0579 64AC 0286  22        CI R6,TTHEN*>0100
     64AE A300     
0580 64B0 1693  14        JNE TOKARG         ; normal argument, look for next arg
0581 64B2 060A  14        DEC R10            ; backup so CHRGET works
0582 64B4 06A0  28        BL @CHRGET         ; skip spaces
     64B6 832C     
0583 64B8 028E  22        CI R14,'9'*>0100
     64BA 3900     
0584 64BC 12B3  14        JLE TOKNUM         ; THEN argument is a number
0585 64BE 0460  28        B @TOKST0          ; THEN argument is a statement
     64C0 62BA     
0586 64C2 04E0  26 TOKSAV CLR @TEMPF3        ; clear "last token was TLET or TSUB" flag
     64C4 833C     
0587 64C6 DE7A  42        MOVB *R10+,*R9+    ; copy character
0588 64C8 1087  14        JMP TOKAR0         ; look for next arg
0589               
0590               * R9 contains end of tokenized string, length=R9-VDPBUF, save *(LINTOP+2)+length for next LINTOP addr
0591               * check if new LINTOP addr is positive for Out Of Memory Error
0592               * then copy from VDPBUF to *(LINTOP+2)
0593               * then look for line number in lintab
0594               * if -1 then execute
0595               * if not found then insert by copying lintab up 4 bytes and updating LINTOP
0596               * write to lintab, go back to NXTCMD to get another input
0597               * R3=old LINTOP
0598               * R7=new code end pointer, R8=tokenized length, R9=tokenized end pointer
0599 64CA 0207  20 TOKEND LI R7,VDPBUF       ; calculate length and end pointers
     64CC 2200     
0600 64CE C147  18        MOV R7,R5
0601 64D0 C209  18        MOV R9,R8
0602 64D2 6207  18        S R7,R8
0603 64D4 C808  30        MOV R8,@TEMPF1     ; stash line length for later use in line table entry
     64D6 8338     
0604 64D8 C1E0  30        MOV @LINTOP,R7
     64DA 8322     
0605 64DC C0C7  18        MOV R7,R3
0606 64DE 05C7  14        INCT R7
0607 64E0 C1D7  26        MOV *R7,R7
0608 64E2 C187  18        MOV R7,R6
0609 64E4 A1C8  18        A R8,R7
0610 64E6 8807  30        C R7,@MEMTOP       ; address lower than or equal to MEMTOP then good, otherwise out of memory
     64E8 8324     
0611 64EA 1A02  14        JL TOKND0
0612 64EC 0460  28        B @OOMERR
     64EE 751A     
0613 64F0 0588  14 TOKND0 INC R8             ; add 1 because we have to stop when reaching 0 and won't copy the last byte
0614 64F2 DDB5  42 TOKND1 MOVB *R5+,*R6+     ; R5=tokenized line pointer, R6=code pointer
0615 64F4 0608  14        DEC R8             ; count down bytes
0616 64F6 16FD  14        JNE TOKND1         ; copy again unless a null was copied
0617 64F8 C30C  18        MOV R12,R12        ; set flags
0618 64FA 1124  14        JLT TOKIMM         ; execute line as immediate without changing line table
0619 64FC C08C  18        MOV R12,R2         ; line number to arg
0620 64FE 06A0  32        BL @FINDLN         ; search for the line number in the line table
     6500 7642     
0621 6502 8642  26        C R2,*R9
0622 6504 1315  14        JEQ TOKREP         ; if new line number was found in the line table no need to make space for it
0623 6506 C120  30        MOV @LINTOP,R4
     6508 8322     
0624 650A 0284  22        CI R4,>4000
     650C 4000     
0625 650E 1602  14        JNE TOKND2         ; if old LINTOP is not >4000 then good, otherwise out of memory
0626 6510 0460  28 TOKOOM B @OOMERR
     6512 751A     
0627               * move (LINTOP+4 downto R9) up one line table entry
0628 6514 8D34  42 TOKND2 C *R4+,*R4+        ; shorthand to quickly add 4 to R4 (include the code pointer and length)
0629 6516 C914  46 TOKND3 MOV *R4,@LTESIZ(R4)
     6518 0006     
0630 651A 0644  14        DECT R4
0631 651C 8244  18        C R4,R9
0632 651E 14FB  14        JHE TOKND3         ; less or equal because decrement happens after copy
0633 6520 C060  30        MOV @LINTOP,R1
     6522 8322     
0634 6524 0221  22        AI R1,LTESIZ
     6526 0006     
0635 6528 C801  30        MOV R1,@LINTOP     ; advance LINTOP 1 entry because we inserted an entry
     652A 8322     
0636 652C C801  30        MOV R1,@CURLIN     ; if we added a line CURLIN was on LINTOP until we moved it, so update
     652E 8320     
0637               * replace current line table entry with new line info
0638 6530 CE42  34 TOKREP MOV R2,*R9+        ; set line number of entry
0639 6532 C060  30        MOV @LINTOP,R1     ; new LINTOP
     6534 8322     
0640 6536 05C1  14        INCT R1            ; point at the code pointer of LINTOP
0641 6538 CE51  42        MOV *R1,*R9+       ; set code pointer of entry
0642 653A C447  30        MOV R7,*R1         ; set new code pointer of LINTOP
0643 653C C660  42        MOV @TEMPF1,*R9    ; set line length of entry
     653E 8338     
0644 6540 0460  28        B @NXTCMD          ; go back to get a new input line
     6542 6278     
0645               * execute immediate
0646 6544 C803  30 TOKIMM MOV R3,@CURLIN     ; set current line to the -1 line after the program (same as LINTOP)
     6546 8320     
0647 6548 05C3  14        INCT R3            ; advance to code pointer
0648 654A C293  26        MOV *R3,R10        ; set TXTPTR
0649 654C 060A  14        DEC R10            ; backup for CHRGET
0650 654E 06A0  28        BL @CHRGET         ; preload character for GETSTT (skipping leading spaces)
     6550 832C     
0651 6552 0460  28        B @GETSTT          ; start executing
     6554 61E8     
0652               
0653               
0654               * All Statements
0655               * switch to new workspace pointer and call machine language at addr
0656 6556 06A0  32 SSYS   BL @GETVC
     6558 75CE     
0657 655A 0204  20        LI R4,SYSWS
     655C 24E0     
0658 655E 0404  30        BLWP R4            ; R4=workspace pointer, R5=branch target set by GETVC
0659 6560 0460  28        B @NXTSTT
     6562 6228     
0660               * set all variables to 0
0661 6564 0702  14 SCLR   SETO R2         ; Default MEMTOP
0662 6566 06A0  28        BL @CHRGET
     6568 832C     
0663 656A 06A0  32        BL @CHKEND
     656C 7658     
0664 656E 160A  14        JNE SCLRDO      ; if no argument do CLR with the default MEMTOP
0665 6570 060A  14        DEC R10         ; backup one character so GETVC can see it
0666 6572 06A0  32        BL @GETVC
     6574 75CE     
0667 6576 0545  14        INV R5          ; invert value gives correct MEMTOP (-value + 1)
0668 6578 C085  18        MOV R5,R2
0669 657A C0E0  30        MOV @LINTOP,R3  ; check next free address (*[LINTOP+2]) is not higher than new MEMTOP
     657C 8322     
0670 657E 05C3  14        INCT R3
0671 6580 84C2  26        C R2,*R3
0672 6582 12C6  14        JLE TOKOOM      ; if lower or equal then out of memory error and do not change MEMTOP
0673 6584 C802  30 SCLRDO MOV R2,@MEMTOP  ; set new MEMTOP
     6586 8324     
0674 6588 04C0  14        CLR R0
0675 658A 0201  20        LI R1,NXTLBL-VARS
     658C 00C0     
0676 658E C840  38 CLRVAR MOV R0,@VARS-2(R1)
     6590 24FE     
0677 6592 0641  14        DECT R1
0678 6594 16FC  14        JNE CLRVAR
0679               *       BL @CHRGET
0680 6596 0460  28        B @NXTSTT
     6598 6228     
0681               * clear all program lines
0682 659A 04CE  14 SNEW   CLR R14
0683 659C 020A  20        LI R10,TXTBOT
     659E A000     
0684 65A0 0202  20        LI R2,LINBOT
     65A2 25C0     
0685 65A4 0703  14        SETO R3
0686 65A6 C68E  30        MOV R14,*R10    ; put terminator at start of program lines
0687 65A8 C802  30        MOV R2,@CURLIN
     65AA 8320     
0688 65AC C802  30        MOV R2,@LINTOP  ; point current line pointer and top of line pointers to bottom
     65AE 8322     
0689 65B0 C483  30        MOV R3,*R2      ; -1 for first line number (interactive)
0690 65B2 C88A  38        MOV R10,@2(R2)  ; TXTBOT for first code pointer
     65B4 0002     
0691 65B6 C88E  38        MOV R14,@4(R2)  ; zero length of line -1
     65B8 0004     
0692 65BA 0460  28        B @NXTSTT
     65BC 6228     
0693               * display all or part of program code to screen
0694 65BE 04C2  14 SLIST  CLR R2          ; default start line number 0
0695 65C0 0208  20        LI R8,32767     ; default end line number 32767
     65C2 7FFF     
0696 65C4 06A0  28        BL @CHRGET
     65C6 832C     
0697 65C8 06A0  32        BL @CHKEND
     65CA 7658     
0698 65CC 1619  14        JNE LISTDO      ; if no arguments then start listing (default form = all lines)
0699 65CE 028E  22        CI R14,TTO*>0100  ; was TSUB but tokenizer couldn't produce desired lines
     65D0 A200     
0700 65D2 1313  14        JEQ LISTEB      ; if leading -/TO then skip to getting end line number
0701 65D4 060A  14        DEC R10         ; backup one character so GETVC can see it
0702 65D6 06A0  32        BL @GETVC
     65D8 75CE     
0703 65DA C085  18        MOV R5,R2       ; set start line number to first argument
0704 65DC C205  18        MOV R5,R8       ; set end line number to first argument
0705 65DE 06A0  32        BL @CHKEND
     65E0 7658     
0706 65E2 160E  14        JNE LISTDO      ; if no more arguments then start listing (single line)
0707 65E4 028E  22        CI R14,TTO*>0100  ; was TSUB but tokenizer couldn't produce desired lines
     65E6 A200     
0708 65E8 06A0  28        BL @CHRGET      ; check next character after -/TO
     65EA 832C     
0709 65EC 06A0  32        BL @CHKEND
     65EE 7658     
0710 65F0 1303  14        JEQ LISTEA      ; if -/TO end then back up and get end line liumber
0711 65F2 0208  20        LI R8,32767     ; if start-/TO then use default end line number
     65F4 7FFF     
0712 65F6 1004  14        JMP LISTDO      ; and start listing (start-)
0713               * if this isn't the end then there is an end line
0714 65F8 060A  14 LISTEA DEC R10         ; backup one character so GETVC can see it
0715 65FA 06A0  32 LISTEB BL @GETVC
     65FC 75CE     
0716 65FE C205  18        MOV R5,R8       ; set end line number to second argument and fall through to start listing (-end or start-end)
0717               * do the actual listing, only after we get the list arguments, R2=start, R8=end
0718 6600 C74A  30 LISTDO MOV R10,*R13    ; backup current program location to stack
0719 6602 C802  30        MOV R2,@TEMPF4  ; save start/end line numbers since all the registers are in use
     6604 833E     
0720 6606 C808  30        MOV R8,@TEMPF5
     6608 8340     
0721 660A 0208  20        LI R8,LINBOT    ; start at first line
     660C 25C0     
0722 660E 06A0  28 LISTL  BL @CHKCLR      ; check if CLEAR/FN4/break key is pressed
     6610 04B2     
0723 6612 1606  14        JNE LISTL1
0724 6614 0203  20        LI R3,BREAK     ; CLEAR/FN4/break key pressed
     6616 79FE     
0725 6618 06A0  32        BL @PRTNEG
     661A 792E     
0726 661C 0460  28        B @NXTCMD
     661E 6278     
0727 6620 C178  30 LISTL1 MOV *R8+,R5     ; get line number
0728 6622 C2B8  30        MOV *R8+,R10    ; set TXTPTR to this line
0729 6624 05C8  14        INCT R8         ; skip line length
0730 6626 C145  18        MOV R5,R5       ; set flags
0731 6628 1124  14        JLT LISTD1      ; if negative line number then list is done
0732 662A 8805  30        C R5,@TEMPF4
     662C 833E     
0733 662E 11EF  14        JLT LISTL       ; if current line number < start line number then go to next line
0734 6630 8805  30        C R5,@TEMPF5
     6632 8340     
0735 6634 151E  14        JGT LISTD1      ; if current line number > end line number then list is done
0736 6636 06A0  32        BL @PRTNUM      ; convert the number to a string and print it
     6638 7920     
0737 663A 0201  20        LI R1,CSPACE    ; print a space and fall through to printing the contents of the line
     663C 2000     
0738 663E 06A0  32        BL @CHROUT
     6640 7720     
0739 6642 D3BA  28 LISTC  MOVB *R10+,R14  ; get the character
0740 6644 1317  14        JEQ LIST0       ; if end of line
0741 6646 028E  22        CI R14,TDEC*>0100
     6648 E600     
0742 664A 141D  14        JHE LIST1       ; if variable decrement
0743 664C 028E  22        CI R14,TINC*>0100
     664E CC00     
0744 6650 1427  14        JHE LIST2       ; if variable increment
0745 6652 028E  22        CI R14,TLET*>0100
     6654 B100     
0746 6656 1431  14        JHE LIST3       ; if LET
0747 6658 028E  22        CI R14,TCONST*>0100
     665A B000     
0748 665C 1343  14        JEQ LIST4       ; if number constant
0749 665E 028E  22        CI R14,TSYS*>0100
     6660 7100     
0750 6662 1447  14        JHE LIST5       ; if other token
0751 6664 028E  22        CI R14,'"'*>0100
     6666 2200     
0752 6668 1357  14        JEQ LIST6       ; if quote mode
0753 666A C04E  18        MOV R14,R1      ; otherwise print the character exactly and move to next character
0754 666C 06A0  32        BL @CHROUT
     666E 7720     
0755 6670 10E8  14        JMP LISTC
0756 6672 105E  14 LISTD1 JMP LISTDN      ; intermediate hop because SLIST is too long
0757 6674 C308  18 LIST0  MOV R8,R12      ; preserve R8/9 across CHROUT of tab and enter
0758 6676 C3C9  18        MOV R9,R15
0759 6678 0201  20        LI R1,CENTER    ; print newline and go to next line
     667A 0D00     
0760 667C 06A0  32        BL @CHROUT
     667E 7720     
0761 6680 C24F  18        MOV R15,R9
0762 6682 C20C  18        MOV R12,R8
0763 6684 10C4  14        JMP LISTL
0764 6686 020F  20 LIST1  LI R15,TDEC*>0100
     6688 E600     
0765 668A C04E  18        MOV R14,R1
0766 668C 704F  18        SB R15,R1       ; R1h contains variable number
0767 668E 0221  22        AI R1,'A'*>0100  ; R1h contains variable letter
     6690 4100     
0768 6692 06A0  32        BL @CHROUT      ; print it
     6694 7720     
0769 6696 0201  20        LI R1,'-'*>0100  ; print minus sign
     6698 2D00     
0770 669A 06A0  32        BL @CHROUT
     669C 7720     
0771 669E 10D1  14        JMP LISTC       ; go to the next character
0772 66A0 020F  20 LIST2  LI R15,TINC*>0100
     66A2 CC00     
0773 66A4 C04E  18        MOV R14,R1
0774 66A6 704F  18        SB R15,R1       ; R1h contains variable number
0775 66A8 0221  22        AI R1,'A'*>0100  ; R1h contains variable letter
     66AA 4100     
0776 66AC 06A0  32        BL @CHROUT      ; print it
     66AE 7720     
0777 66B0 0201  20        LI R1,'+'*>0100  ; print plus sign
     66B2 2B00     
0778 66B4 06A0  32        BL @CHROUT
     66B6 7720     
0779 66B8 10C4  14        JMP LISTC       ; go to the next character
0780 66BA 020F  20 LIST3  LI R15,TLET*>0100
     66BC B100     
0781 66BE C04E  18        MOV R14,R1
0782 66C0 704F  18        SB R15,R1       ; R1h contains variable number
0783 66C2 0281  22        CI R1,VARAT*>0100
     66C4 1A00     
0784 66C6 1605  14        JNE LIST3B
0785 66C8 0201  20        LI R1,'@'*>0100  ; force @ to print
     66CA 4000     
0786 66CC 06A0  32        BL @CHROUT      ; print it
     66CE 7720     
0787 66D0 10B8  14        JMP LISTC       ; don't print equals sign when displaying address LET
0788 66D2 0221  22 LIST3B AI R1,'A'*>0100  ; R1h containst variable letter
     66D4 4100     
0789 66D6 06A0  32        BL @CHROUT      ; print it
     66D8 7720     
0790 66DA 0201  20        LI R1,'='*>0100  ; print equals sign
     66DC 3D00     
0791 66DE 06A0  32        BL @CHROUT
     66E0 7720     
0792 66E2 10AF  14        JMP LISTC       ; go to the next character
0793 66E4 D17A  28 LIST4  MOVB *R10+,R5    ; get high byte
0794 66E6 D13A  28        MOVB *R10+,R4    ; get low byte
0795 66E8 06C4  14        SWPB R4         ; put low byte in position
0796 66EA E144  18        SOC R4,R5       ; combine high and low into R5
0797 66EC 06A0  32        BL @PRTNUM      ; print it
     66EE 7920     
0798 66F0 10A8  14        JMP LISTC       ; go to the next character
0799 66F2 020F  20 LIST5  LI R15,TSYS*>0100
     66F4 7100     
0800 66F6 C24E  18        MOV R14,R9
0801 66F8 724F  18        SB R15,R9       ; R9 is token number
0802 66FA 06C9  14        SWPB R9         ; move number from byte to word form
0803 66FC A249  18        A R9,R9         ; R9 is token offset in bytes
0804 66FE C0E9  34        MOV @KEYWRD(R9),R3  ; R3 is address of token text
     6700 616A     
0805 6702 06A0  32        BL @PRTNEG      ; print this token
     6704 792E     
0806 6706 028E  22        CI R14,TREM*>0100
     6708 8500     
0807 670A 169B  14        JNE LISTC       ; if not REM then go to the next character, else print rest of line literally
0808 670C D3BA  28 LIST5L MOVB *R10+,R14  ; get next character of REM line
0809 670E 13B2  14        JEQ LIST0       ; if end of line reached then go to the next line
0810 6710 C04E  18        MOV R14,R1      ; print character literally
0811 6712 06A0  32        BL @CHROUT
     6714 7720     
0812 6716 10FA  14        JMP LIST5L      ; go to the next character
0813 6718 C04E  18 LIST6  MOV R14,R1      ; print the quote
0814 671A 06A0  32        BL @CHROUT
     671C 7720     
0815 671E C0CA  18        MOV R10,R3
0816 6720 06A0  32        BL @PRTNEG      ; print the string up to the inverted character (inclusive)
     6722 792E     
0817 6724 0201  20        LI R1,'"'*>0100  ; print another quote
     6726 2200     
0818 6728 06A0  32        BL @CHROUT
     672A 7720     
0819 672C C283  18        MOV R3,R10      ; set listing position to character after end of string
0820 672E 1089  14        JMP LISTC       ; go to the next character
0821 6730 C29D  26 LISTDN MOV *R13,R10    ; restore program location from stack (didn't advance TOS so don't need to rewind)
0822 6732 D39A  26        MOVB *R10,R14   ; restore current character for NXTSTT
0823 6734 0460  28        B @NXTSTT
     6736 6228     
0824               * RUN/GOTO/GOSUB - use R0 for "save return on stack", src2 (R3/4/5) for destination,
0825               * R2 is copy of R5, R9 for line table pointer, R11/12 for return addresses
0826               * get argument (optional for RUN), find line (skipped if RUN without arg), set line pointer
0827               * start program (at start or optionally at line number) (same as goto)
0828 6738 04C0  14 SRUN   CLR R0
0829 673A 020D  20        LI R13,STACK    ; RUN clears execution stack (GOTO/GOSUB do not)
     673C 2000     
0830 673E 06A0  28        BL @CHRGET      ; look at next character
     6740 832C     
0831 6742 06A0  32        BL @CHKEND
     6744 7658     
0832 6746 1308  14        JEQ RUN1
0833 6748 0209  20        LI R9,LINBOT    ; default args
     674A 25C0     
0834 674C C3D9  26        MOV *R9,R15     ; check if there is a program (first line number negative means no)
0835 674E 1106  14        JLT RUN2        ; if no program then just go back to interactive mode
0836 6750 C3C9  18        MOV R9,R15
0837 6752 05CF  14        INCT R15
0838 6754 C3DF  26        MOV *R15,R15
0839 6756 101C  14        JMP GOSUB2
0840 6758 060A  14 RUN1   DEC R10         ; need to back up if there is an argument to GETVC can see it
0841 675A 1005  14        JMP GOSUB1
0842 675C 0460  28 RUN2   B @NXTRDY
     675E 6270     
0843               * move execution to line number
0844 6760 04C0  14 SGOTO  CLR R0
0845 6762 1001  14        JMP GOSUB1
0846               * save return pointer then move execution to line number
0847 6764 0700  14 SGOSUB SETO R0
0848 6766 06A0  32 GOSUB1 BL @GETVC
     6768 75CE     
0849 676A C085  18        MOV R5,R2
0850 676C 06A0  32        BL @CHKEND      ; check next character is end of statement or end of line
     676E 7658     
0851 6770 1315  14        JEQ GOSUBE      ; if not end of statement then SYNTAX ERROR
0852 6772 06A0  32        BL @FINDLN
     6774 7642     
0853 6776 8642  26        C R2,*R9
0854 6778 1615  14        JNE GOUSER      ; if found line not desired line then UNDEFINED STATEMENT
0855 677A C000  18        MOV R0,R0
0856 677C 1309  14        JEQ GOSUB2      ; skip saving on stack for all but GOSUB
0857 677E 028D  22        CI R13,STACK+STKSIZ-GSBSIZ
     6780 20FA     
0858 6782 1B0E  14        JH GOOOM        ; if stack pointer is less than (GOSUB stack entry size) bytes from top then OUT OF MEMORY
0859 6784 CF60  46        MOV @CURLIN,*R13+
     6786 8320     
0860 6788 CF4A  34        MOV R10,*R13+
0861 678A 0200  20        LI R0,TGOSUB
     678C 0077     
0862 678E CF40  34        MOV R0,*R13+    ; save {CURLIN,TXTPTR,TGOSUB} to stack
0863 6790 C809  30 GOSUB2 MOV R9,@CURLIN  ; set CURLIN to point to desired line in line table
     6792 8320     
0864 6794 C28F  18        MOV R15,R10     ; set TXTPTR to point to desired line text
0865 6796 D39A  26        MOVB *R10,R14   ; preload first character for GETSTT
0866 6798 0460  28        B @GETSTT       ; since we know the new TXTPTR is not the end of line or statement, use GETSTT rather than NXTSTT
     679A 61E8     
0867 679C 0460  28 GOSUBE B @SYNERR
     679E 750E     
0868 67A0 0460  28 GOOOM  B @OOMERR
     67A2 751A     
0869 67A4 0203  20 GOUSER LI R3,USMSG
     67A6 758B     
0870 67A8 0460  28        B @ERROR
     67AA 751E     
0871               
0872               * move execution to saved return pointer
0873               * use temporary pointer to rewind the stack
0874               * once we find the GOSUB token move everything down to replace the removed entry
0875 67AC C3CD  18 SRETUR MOV R13,R15
0876 67AE 064F  14        DECT R15
0877 67B0 028F  22 RETUR1 CI R15,STACK
     67B2 2000     
0878 67B4 1218  14        JLE RWGERR      ; if reached or passed stack base then RETURN WITHOUT GOSUB ERROR
0879 67B6 C25F  26        MOV *R15,R9     ; load from memory once
0880 67B8 0289  22        CI R9,TGOSUB
     67BA 0077     
0881 67BC 1306  14        JEQ RETUR2      ; if GOSUB token process it
0882 67BE 0289  22        CI R9,TFOR
     67C0 007B     
0883 67C2 1611  14        JNE RWGERR      ; if stack contains not a GOSUB or FOR then stack is corrupt
0884 67C4 022F  22        AI R15,-12      ; if it is a FOR then back up 12 bytes (amount a FOR places on the stack)
     67C6 FFF4     
0885 67C8 10F3  14        JMP RETUR1
0886 67CA 064F  14 RETUR2 DECT R15
0887 67CC C29F  26        MOV *R15,R10    ; next item is TXTPTR
0888 67CE 064F  14        DECT R15
0889 67D0 C81F  38        MOV *R15,@CURLIN  ; bottom item is CURLIN
     67D2 8320     
0890               * now we have to copy up
0891 67D4 022D  22        AI R13,-GSBSIZ  ; move STKPTR down (GOSUB stack entry size) bytes
     67D6 FFFA     
0892 67D8 CFEF  50 RETUR3 MOV @GSBSIZ(R15),*R15+  ; copy (GOSUB stack entry size) bytes above to here and advance the copy pointer
     67DA 0006     
0893 67DC 834F  18        C R15,R13
0894 67DE 12FC  14        JLE RETUR3      ; if not above the top of stack then copy more
0895 67E0 D39A  26        MOVB *R10,R14   ; prime next character
0896 67E2 0460  28        B @NXTSTT
     67E4 6228     
0897 67E6 0203  20 RWGERR LI R3,RWGMSG
     67E8 759A     
0898 67EA 0460  28        B @ERROR
     67EC 751E     
0899               * stop program, return to interactive mode
0900 67EE C820  42 SEND   MOV @LINTOP,@CURLIN  ; CURLIN=LINTOP
     67F0 8322     
     67F2 8320     
0901               *       CLR R10         ; wipe out TXTPTR (not needed)
0902 67F4 04CE  14        CLR R14         ; prep NXTSTT
0903 67F6 0460  28        B @NXTRDY
     67F8 6270     
0904               * evaluate condition and maybe continue or jump to next line number
0905               * Note: IF A THEN ... supported here but not in tokenizer
0906 67FA 06A0  28 SIF    BL @CHRGET      ; fetch 1st parameter after the statement token
     67FC 832C     
0907 67FE 028E  22        CI R14,TNOT*>0100
     6800 A600     
0908 6802 1605  14        JNE IF1
0909               * NOT numeric
0910 6804 06A0  32        BL @GETVC
     6806 75CE     
0911 6808 C205  18        MOV R5,R8
0912 680A 0548  14        INV R8
0913 680C 1028  14        JMP IFEVAL
0914 680E 028E  22 IF1    CI R14,TSUB*>0100
     6810 9900     
0915 6812 1605  14        JNE IF2
0916               * -numeric
0917 6814 06A0  32        BL @GETVC
     6816 75CE     
0918 6818 C205  18        MOV R5,R8
0919 681A 0508  14        NEG R8
0920 681C 1020  14        JMP IFEVAL
0921 681E 060A  14 IF2    DEC R10        ; back up TXTPTR so GETVC can see the current token
0922 6820 06A0  32        BL @GETVC
     6822 75CE     
0923 6824 028E  22        CI R14,TTHEN*>0100
     6826 A300     
0924 6828 1602  14        JNE IFEXPR
0925               * numeric
0926 682A C205  18        MOV R5,R8
0927 682C 1018  14        JMP IFEVAL
0928               * numeric operator numeric
0929 682E C085  18 IFEXPR MOV R5,R2
0930 6830 C10E  18        MOV R14,R4
0931 6832 06C4  14        SWPB R4         ; change from byte to word format
0932 6834 0203  20        LI R3,TSHIFT
     6836 00A1     
0933 6838 80C4  18        C R4,R3
0934 683A 1BB0  14        JH GOSUBE       ; operator is outside (higher) of function range
0935 683C 0203  20        LI R3,TEQUAL
     683E 0092     
0936 6840 80C4  18        C R4,R3
0937 6842 1AAC  14        JL GOSUBE       ; operator is outside (lower) of function range
0938 6844 6103  18        S R3,R4         ; R4 = this token - first function token
0939 6846 A104  18        A R4,R4         ; double to reflect bytes in table entries
0940 6848 C824  46        MOV @FTABLE(R4),@TEMPF1  ; lookup function address and save in temp (R11/12 will be clobbered by GETVC)
     684A 605A     
     684C 8338     
0941 684E 06A0  32        BL @GETVC       ; get final argument
     6850 75CE     
0942 6852 028E  22        CI R14,TTHEN*>0100
     6854 A300     
0943 6856 16A2  14        JNE GOSUBE      ; THEN keyword is expected but missing
0944 6858 C2E0  30        MOV @TEMPF1,R11
     685A 8338     
0945 685C 069B  24        BL *R11         ; call calculated function address
0946               * R8 now contains the value to check, =0 condition false, <>0 condition true
0947 685E C208  18 IFEVAL MOV R8,R8       ; set flags
0948 6860 1602  14        JNE IFTRUE
0949 6862 0460  28        B @SREM         ; treat rest of line as comment to advance to next line
     6864 6E68     
0950 6866 06A0  28 IFTRUE BL @CHRGET      ; advance past THEN keyword
     6868 832C     
0951 686A 028E  22        CI R14,TCONST*>0100
     686C B000     
0952 686E 1305  14        JEQ IFLINE
0953 6870 028E  22        CI R14,TSYS*>0100
     6872 7100     
0954 6874 1A02  14        JL IFLINE
0955               * THEN statement(s)
0956 6876 0460  28        B @GETSTT       ; use GET instead of NXT since not at EOS/EOL character
     6878 61E8     
0957               * THEN line number
0958 687A 060A  14 IFLINE DEC R10         ; back up one character so GETVC can see the current one
0959 687C 0460  28        B @SGOTO        ; treat rest of line as the argument of a GOTO to change lines
     687E 6760     
0960               * initiate a new loop condition
0961               * use temporary pointer to rewind the stack
0962               * once we find the FOR token for this variable replace it, if we don't find then add at top
0963 6880 06A0  32 SFOR   BL @GETVC       ; get index variable
     6882 75CE     
0964 6884 C0C3  18        MOV R3,R3       ; set flags
0965 6886 113F  14        JLT FORSYN      ; if constant then SYNTAX ERROR
0966 6888 C1C4  18        MOV R4,R7       ; move the variable address into result register position
0967 688A C3CD  18        MOV R13,R15     ; work with a temporary copy of STKPTR
0968 688C 064F  14        DECT R15
0969 688E 028F  22 FOR1   CI R15,STACK
     6890 2000     
0970 6892 1210  14        JLE FORTOS      ; if at or below stack base then add FOR at top of stack
0971 6894 C25F  26        MOV *R15,R9     ; load from memory once
0972 6896 0289  22        CI R9,TFOR
     6898 007B     
0973 689A 1306  14        JEQ FOR2        ; if FOR token process it
0974 689C 0289  22        CI R9,TGOSUB
     689E 0077     
0975 68A0 16A2  14        JNE RWGERR      ; if stack contains not a GOSUB or FOR then stack is corrupt
0976 68A2 022F  22        AI R15,-GSBSIZ  ; if it is a GOSUB then back up (GOSUB stack entry size) bytes
     68A4 FFFA     
0977 68A6 10F3  14        JMP FOR1
0978 68A8 064F  14 FOR2   DECT R15        ; next on stack after FOR token is variable address
0979 68AA 81DF  26        C *R15,R7
0980 68AC 1309  14        JEQ FORARG      ; now go get arguments for FOR entry
0981 68AE 022F  22        AI R15,2-FORSIZ  ; if not correct FOR variable then back up (amount of FOR entry still on stack)
     68B0 FFF6     
0982 68B2 10ED  14        JMP FOR1        ; continue to try to find the right one
0983 68B4 028D  22 FORTOS CI R13,STACK+STKSIZ-FORSIZ
     68B6 20F4     
0984 68B8 1B28  14        JH FOROOM       ; if stack pointer is less than (FOR entry size) bytes from top then OUT OF MEMORY
0985 68BA C3CD  18        MOV R13,R15     ; start back at top of stack
0986 68BC 022F  22        AI R15,4-FORSIZ  ; advance so next subtraction puts us back at top of stack
     68BE FFF8     
0987 68C0 022F  22 FORARG AI R15,FORSIZ-4  ; back up so stack writes will exactly replace this entry
     68C2 0008     
0988               * code to read rest of line, set initial variable value, and update stack
0989 68C4 028E  22        CI R14,TEQUAL*>0100
     68C6 9200     
0990 68C8 161E  14        JNE FORSYN      ; if = after variable missing then SYNTAX ERROR
0991 68CA 06A0  32        BL @GETVC       ; get the initial value
     68CC 75CE     
0992 68CE C5C5  30        MOV R5,*R7      ; update variable in memory to initial value
0993 68D0 028E  22        CI R14,TTO*>0100
     68D2 A200     
0994 68D4 1618  14        JNE FORSYN      ; if TO after initial value missing then SYNTAX ERROR
0995 68D6 06A0  32        BL @GETVC       ; get TO value
     68D8 75CE     
0996 68DA C085  18        MOV R5,R2       ; move TO value into arg1 register position
0997 68DC 0205  20        LI R5,1         ; set default STEP value
     68DE 0001     
0998 68E0 028E  22        CI R14,TSTEP*>0100
     68E2 A400     
0999 68E4 1602  14        JNE FORINS      ; if no STEP argument then insert this FOR on the stack
1000 68E6 06A0  32        BL @GETVC       ; get STEP value into arg2 register position
     68E8 75CE     
1001 68EA CFE0  46 FORINS MOV @CURLIN,*R15+  ; write stack with {CURLIN, TXTPTR, STEP val, TO val, var addr, TFOR}
     68EC 8320     
1002 68EE CFCA  34        MOV R10,*R15+
1003 68F0 CFC5  34        MOV R5,*R15+
1004 68F2 CFC2  34        MOV R2,*R15+
1005 68F4 CFC7  34        MOV R7,*R15+
1006 68F6 0200  20        LI R0,TFOR
     68F8 007B     
1007 68FA CFC0  34        MOV R0,*R15+
1008 68FC 834F  18        C R15,R13
1009 68FE 1201  14        JLE FORRET      ; if temporary stack position is not higher that STKPTR then keep STKPTR
1010 6900 C34F  18        MOV R15,R13     ; if higher then use the temporary value as the new one
1011 6902 0460  28 FORRET B @NXTSTT
     6904 6228     
1012 6906 0460  28 FORSYN B @SYNERR
     6908 750E     
1013 690A 0460  28 FOROOM B @OOMERR
     690C 751A     
1014               * check condition and maybe repeat
1015 690E C3CD  18 SNEXT  MOV R13,R15     ; work with a temporary copy of STKPTR
1016 6910 064F  14        DECT R15
1017 6912 028F  22 NEXT1  CI R15,STACK
     6914 2000     
1018 6916 122D  14        JLE NEXTER      ; if at or below stack base then NEXT WITHOUT FOR ERROR
1019 6918 C25F  26        MOV *R15,R9     ; load from memory once
1020 691A 0289  22        CI R9,TFOR
     691C 007B     
1021 691E 1306  14        JEQ NEXT2       ; if FOR token process it
1022 6920 0289  22        CI R9,TGOSUB
     6922 0077     
1023 6924 1626  14        JNE NEXTER      ; if stack contains not a GOSUB or FOR then stack is corrupt
1024 6926 022F  22        AI R15,-GSBSIZ  ; if it is a GOSUB then back up (GOSUB stack entry size)
     6928 FFFA     
1025 692A 10F3  14        JMP NEXT1
1026 692C 064F  14 NEXT2  DECT R15
1027 692E C1DF  26        MOV *R15,R7     ; next on stack after FOR token is variable address
1028 6930 064F  14        DECT R15
1029 6932 C09F  26        MOV *R15,R2     ; recover TO value
1030 6934 064F  14        DECT R15
1031 6936 C15F  26        MOV *R15,R5     ; recover STEP value, don't take out CURLIN and TXTPTR until we know we have to
1032 6938 C217  26        MOV *R7,R8      ; retrieve loop variable value
1033 693A A205  18        A R5,R8         ; update it
1034 693C C5C8  30        MOV R8,*R7      ; store it back
1035 693E D145  18        MOVB R5,R5      ; set flags
1036 6940 1103  14        JLT NEXTM
1037               * positive step
1038 6942 8088  18        C R8,R2
1039 6944 150C  14        JGT NEXTDN      ; if positive step and current > TO then remove FOR from stack
1040 6946 1003  14        JMP NEXTND      ; else not done so use return to the stacked location
1041               * negative step
1042 6948 8088  18 NEXTM  C R8,R2
1043 694A 1109  14        JLT NEXTDN      ; if positive step and current < TO then remove FOR from stack
1044 694C 1000  14        JMP NEXTND      ; else not done so use return to the stacked location
1045 694E 064F  14 NEXTND DECT R15
1046 6950 C29F  26        MOV *R15,R10    ; recover TXTPTR from stack
1047 6952 064F  14        DECT R15
1048 6954 C81F  38        MOV *R15,@CURLIN  ; recover CURLIN and do not update STKPTR since we aren't done with this FOR loop
     6956 8320     
1049 6958 D39A  26        MOVB *R10,R14    ; prepare for NXTSTT
1050 695A 0460  28        B @NXTSTT
     695C 6228     
1051               * now we have to copy up to remove the finished FOR entry from the stack
1052 695E 022D  22 NEXTDN AI R13,-FORSIZ  ; move STKPTR down (FOR stack entry size)
     6960 FFF4     
1053 6962 CFEF  50 NEXT3  MOV @FORSIZ(R15),*R15+  ; copy (FOR stack entry size) bytes above to here and advance the copy pointer
     6964 000C     
1054 6966 834F  18        C R15,R13
1055 6968 12FC  14        JLE NEXT3       ; if not above the top of stack then copy more
1056 696A 06A0  28        BL @CHRGET      ; advance off NEXT token to prepare for next statement
     696C 832C     
1057 696E 0460  28        B @NXTSTT
     6970 6228     
1058 6972 0203  20 NEXTER LI R3,NWFMSG
     6974 75AF     
1059 6976 0460  28        B @ERROR
     6978 751E     
1060               * output numbers or strings
1061 697A D80A  30 SPRINT MOVB R10,@ENDLIN  ; any non-zero default
     697C 8342     
1062 697E 06A0  28 PRINTR BL @CHRGET
     6980 832C     
1063 6982 04C1  14        CLR R1
1064 6984 028E  22        CI R14,'"'*>0100
     6986 2200     
1065 6988 1607  14        JNE PRINT1
1066               * literal string
1067 698A 058A  14        INC R10         ; move to next character after quote
1068 698C C0CA  18        MOV R10,R3      ; start string here
1069 698E 06A0  32        BL @PRTNEG      ; print a string ending with a negated end character
     6990 792E     
1070 6992 C283  18        MOV R3,R10      ; update TXTPTR from end of string (pointing to next after inverted character)
1071 6994 060A  14        DEC R10         ; backup so CHRGET takes the first character after the inverted
1072 6996 10F1  14        JMP SPRINT      ; look for next argument
1073 6998 028E  22 PRINT1 CI R14,TSTR*>0100
     699A AC00     
1074 699C 1609  14        JNE PRINT2
1075               * string at STR$(var or value)
1076 699E 06A0  32        BL @GETVC       ; next argument in token stream should be variable or value
     69A0 75CE     
1077 69A2 028E  22        CI R14,')'*>0100
     69A4 2900     
1078 69A6 1635  14        JNE PRINTE
1079 69A8 C0C5  18        MOV R5,R3
1080 69AA 06A0  32        BL @PRTNEG      ; print string pointed to by the value of the argument to STR$
     69AC 792E     
1081 69AE 10E5  14        JMP SPRINT      ; look for next argument
1082 69B0 028E  22 PRINT2 CI R14,TCHR*>0100
     69B2 A500     
1083 69B4 160A  14        JNE PRINT3
1084               * single character CHR$(var or value)
1085 69B6 06A0  32        BL @GETVC      ; next argument in token stream should be variable or value
     69B8 75CE     
1086 69BA 028E  22        CI R14,')'*>0100
     69BC 2900     
1087 69BE 1629  14        JNE PRINTE
1088 69C0 C045  18        MOV R5,R1
1089 69C2 06C1  14        SWPB R1
1090 69C4 06A0  32        BL @CHROUT     ; print the character identified by the value of the argument to CHR$
     69C6 7720     
1091 69C8 10D8  14        JMP SPRINT     ; look for next argument
1092 69CA 028E  22 PRINT3 CI R14,','*>0100
     69CC 2C00     
1093 69CE 1605  14        JNE PRINT5
1094 69D0 0201  20        LI R1,CRIGHT
     69D2 0900     
1095 69D4 06A0  32        BL @CHROUT     ; print tab character to advance to next tab stop on comma
     69D6 7720     
1096 69D8 10D0  14        JMP SPRINT     ; look for next argument
1097 69DA 028E  22 PRINT5 CI R14,';'*>0100
     69DC 3B00     
1098 69DE 1604  14        JNE PRINT6
1099 69E0 04C0  14        CLR R0
1100 69E2 D800  30        MOVB R0,@ENDLIN  ; clear end-of-line flag
     69E4 8342     
1101 69E6 10CB  14        JMP PRINTR     ; look for next argument without reseting end of line flag
1102 69E8 C38E  18 PRINT6 MOV R14,R14
1103 69EA 130A  14        JEQ PRIEND     ; null=end of line
1104 69EC 028E  22        CI R14,':'*>0100
     69EE 3A00     
1105 69F0 1307  14        JEQ PRIEND     ; colon=end of statement
1106 69F2 060A  14        DEC R10        ; back up one character so GETVC can see the current one
1107 69F4 06A0  32        BL @GETVC      ; must be variable, numeric constant, or syntax error
     69F6 75CE     
1108 69F8 060A  14        DEC R10        ; move TXTPTR back since GETVC advances it automatically
1109 69FA 06A0  32        BL @PRTNUM     ; wasn't syntax error so print number
     69FC 7920     
1110 69FE 10BD  14        JMP SPRINT     ; look for next argument
1111 6A00 D3E0  30 PRIEND MOVB @ENDLIN,R15  ; set flags
     6A02 8342     
1112 6A04 1304  14        JEQ PRIRET
1113 6A06 0201  20        LI R1,CENTER    ; print enter if last printed item was not semicolon
     6A08 0D00     
1114 6A0A 06A0  32        BL @CHROUT
     6A0C 7720     
1115 6A0E 0460  28 PRIRET B @NXTSTT
     6A10 6228     
1116 6A12 0460  28 PRINTE B @SYNERR
     6A14 750E     
1117               * input a line until ENTER, store as string in address
1118 6A16 06A0  32 SINPUT BL @GETVC
     6A18 75CE     
1119 6A1A 06A0  32        BL @LINGET
     6A1C 766E     
1120 6A1E C249  18        MOV R9,R9      ; set flags
1121 6A20 1309  14        JEQ INPNUL
1122 6A22 DD77  42 INPCPY MOVB *R7+,*R5+  ; copy from LINBUF to arg.value
1123 6A24 0609  14        DEC R9
1124 6A26 16FD  14        JNE INPCPY     ; repeat until no characters
1125 6A28 0605  14        DEC R5         ; backup to last character copied
1126 6A2A D215  26        MOVB *R5,R8
1127 6A2C 0548  14        INV R8
1128 6A2E D548  30        MOVB R8,*R5    ; invert it to terminate string
1129 6A30 0460  28        B @NXTSTT
     6A32 6228     
1130 6A34 0708  14 INPNUL SETO R8        ; if length was 0 put an inverted null in the string
1131 6A36 D548  30        MOVB R8,*R5
1132 6A38 0460  28        B @NXTSTT
     6A3A 6228     
1133               * get a key, place in variable/location
1134 6A3C 06A0  32 SGET   BL @GETVC
     6A3E 75CE     
1135 6A40 C183  18        MOV R3,R6
1136 6A42 C1C4  18        MOV R4,R7
1137 6A44 1316  14        JEQ GETERR    ; if constant then syntax error
1138 6A46 04C8  14        CLR R8
1139 6A48 04E0  26        CLR @KEYDEV   ; scan from full keyboard
     6A4A 8374     
1140               *       LIMI 0        ; INTERRUPT: interrupt can't be enabled when scanning keys
1141 6A4C 0420  50        BLWP @KSCAN
     6A4E 7AEA     
1142               *       LIMI 2        ; INTERRUPT
1143 6A50 D220  30        MOVB @KEYKEY,R8
     6A52 8375     
1144 6A54 0288  22        CI R8,>FF00
     6A56 FF00     
1145 6A58 1602  14        JNE GETNEW
1146 6A5A 04C8  14        CLR R8        ; replace FF with 00 (standard BASIC no key return value for GET)
1147 6A5C 1006  14        JMP GETUPD
1148 6A5E C3E0  30 GETNEW MOV @GPLSTS,R15  ; retrieve status register
     6A60 837C     
1149 6A62 024F  22        ANDI R15,>2000  ; new key condition bit mask
     6A64 2000     
1150 6A66 1301  14        JEQ GETUPD
1151 6A68 04C8  14        CLR R8        ; not new key, clear key pressed
1152 6A6A 06C8  14 GETUPD SWPB R8
1153 6A6C C5C8  30        MOV R8,*R7
1154 6A6E 0460  28        B @NXTSTT
     6A70 6228     
1155 6A72 0460  28 GETERR B @SYNERR
     6A74 750E     
1156               * set one byte in CPU memory to the LSB of argument
1157               * set multiple bytes in CPU memory to string literal
1158 6A76 06A0  32 SPOKE  BL @GETVC     ; get arg2
     6A78 75CE     
1159 6A7A C045  18        MOV R5,R1     ; arg1addr=arg2val
1160 6A7C 028E  22        CI R14,','*>0100
     6A7E 2C00     
1161 6A80 1611  14        JNE POKESE    ; if next character (already loaded by GETVC) <> , then error else advance TXTPTR
1162 6A82 06A0  28        BL @CHRGET
     6A84 832C     
1163 6A86 028E  22        CI R14,'"'*>0100
     6A88 2200     
1164 6A8A 1605  14        JNE POKE2
1165               * string literal
1166 6A8C 058A  14        INC R10       ; move past quote
1167 6A8E DC7A  42 POKE1  MOVB *R10+,*R1+  ; copy character (including inverted terminator)
1168 6A90 15FE  14        JGT POKE1
1169 6A92 D39A  26        MOVB *R10,R14  ; prime character for NXTSTT
1170 6A94 1005  14        JMP POKE3
1171 6A96 060A  14 POKE2  DEC R10       ; put back character so GETVC can see it
1172 6A98 06A0  32        BL @GETVC     ; get arg2
     6A9A 75CE     
1173 6A9C 06C5  14        SWPB R5       ; put LSB into MSB for byte operations
1174 6A9E D445  30        MOVB R5,*R1   ; put LSB(arg2val) into address(arg1addr)
1175 6AA0 0460  28 POKE3  B @NXTSTT
     6AA2 6228     
1176 6AA4 0460  28 POKESE B @SYNERR
     6AA6 750E     
1177 6AA8 0460  28 POKEIQ B @IQERR
     6AAA 7514     
1178               * set one word in CPU memory to the argument
1179 6AAC 06A0  32 SDPOKE BL @GETVC     ; get arg2
     6AAE 75CE     
1180 6AB0 C045  18        MOV R5,R1     ; arg1addr=arg2val
1181 6AB2 0B15  18        SRC R5,1      ; test if even/odd
1182 6AB4 18F9  14        JOC POKEIQ    ; if odd then ILLEGAL QUANTITY
1183 6AB6 028E  22        CI R14,','*>0100
     6AB8 2C00     
1184 6ABA 16F4  14        JNE POKESE    ; if next character (already loaded by GETVC) <> , then error else advance TXTPTR
1185 6ABC 06A0  32        BL @GETVC     ; get arg2
     6ABE 75CE     
1186 6AC0 C445  30        MOV R5,*R1    ; put arg2val into address(arg1addr)
1187 6AC2 0460  28        B @NXTSTT
     6AC4 6228     
1188               * set one byte in VDP memory to the LSB of argument
1189 6AC6 06A0  32 SVPOKE BL @GETVC     ; get arg2
     6AC8 75CE     
1190 6ACA 0285  22        CI R5,>4000
     6ACC 4000     
1191 6ACE 14EC  14        JHE POKEIQ    ; if addr>16k then illegal quantity
1192 6AD0 C005  18        MOV R5,R0     ; VDPaddr=arg2val
1193 6AD2 028E  22        CI R14,','*>0100
     6AD4 2C00     
1194 6AD6 16E6  14        JNE POKESE    ; if next character (already loaded by GETVC) <> , then error else advance TXTPTR
1195 6AD8 06A0  32        BL @GETVC     ; get arg2
     6ADA 75CE     
1196 6ADC 06C5  14        SWPB R5       ; put LSB into MSB for byte operations
1197 6ADE D045  18        MOVB R5,R1
1198 6AE0 06A0  32        BL @VSBW      ; put arg2val into VDP address
     6AE2 7B0A     
1199 6AE4 0460  28        B @NXTSTT
     6AE6 6228     
1200               
1201               * load"filename" : load BASIC program to file
1202               * dload"filename",start : copy file to CPU memory
1203               * vload"filename",start : copy file to video memory
1204 6AE8 04CF  14 SLOAD  CLR R15       ; LOAD flag
1205 6AEA 04E0  26        CLR @TEMPF2   ; clear program/data flag to DATA
     6AEC 833A     
1206 6AEE 04E0  26        CLR @TEMPF3   ; clear load address
     6AF0 833C     
1207 6AF2 06A0  32        BL @LSOPT     ; get filename and open file
     6AF4 6D8E     
1208 6AF6 1607  14        JNE LDHDR     ; if no more options then load the file header
1209 6AF8 028E  22        CI R14,','*>0100
     6AFA 2C00     
1210 6AFC 16D3  14        JNE POKESE    ; if no comma then SYNTAX ERROR
1211 6AFE 06A0  32        BL @GETVC     ; modifies R3,4,5 to get start address in R5
     6B00 75CE     
1212 6B02 C805  30        MOV R5,@TEMPF3  ; address in TEMPF3
     6B04 833C     
1213               * perform initial read of first record
1214 6B06 04E0  26 LDHDR  CLR @GPLSTS   ; always clear status before calling DSRLNK
     6B08 837C     
1215 6B0A 0420  50        BLWP @DSRLNK  ; invoke device driver to read record 0
     6B0C 7AEE     
1216 6B0E 0200  20        LI R0,VDPPAB+1
     6B10 373F     
1217 6B12 06A0  32        BL @VSBR      ; read device driver flags after operation
     6B14 7AF6     
1218 6B16 0241  22        ANDI R1,>7000  ; only look at status bits
     6B18 7000     
1219 6B1A 164F  14        JNE LOADIO    ; if non-zero then report FILE IO error (other error)
1220               * check file header
1221 6B1C 0204  20        LI R4,VDPPAB+PABSIZ  ; buffer pointer
     6B1E 3758     
1222 6B20 0205  20        LI R5,>80     ; buffer left
     6B22 0080     
1223 6B24 0207  20        LI R7,15*2+BASWP  ; address of R15
     6B26 831E     
1224 6B28 0208  20        LI R8,2       ; 2 bytes for 'JB'
     6B2A 0002     
1225 6B2C 06A0  32        BL @DSKIN
     6B2E 77EA     
1226 6B30 028F  22        CI R15,'J'*>0100+'B'  ; header of BASIC program files
     6B32 4A42     
1227 6B34 1353  14        JEQ LOADJB    ; if JB header
1228 6B36 028F  22        CI R15,'J'*>0100+'D'  ; header of data files
     6B38 4A44     
1229 6B3A 163F  14        JNE LOADIO    ; if proper header not present then report FILE IO error (wrong file type)
1230               * data file
1231 6B3C 0207  20        LI R7,TEMPF3  ; address of TEMPF3
     6B3E 833C     
1232 6B40 C017  26        MOV *R7,R0    ; check the value stored there
1233 6B42 1301  14        JEQ LDDAT1    ; if value is zero use TEMPF3 to capture the file address
1234 6B44 04C7  14        CLR R7        ; else discard data read by writing it to ROM so TEMPF3 stays the address used
1235 6B46 0208  20 LDDAT1 LI R8,2       ; 2 bytes for start address
     6B48 0002     
1236 6B4A 06A0  32        BL @DSKIN
     6B4C 77EA     
1237 6B4E 0207  20        LI R7,3*2+BASWP  ; address of R3
     6B50 8306     
1238 6B52 0208  20        LI R8,2       ; 2 bytes for file length
     6B54 0002     
1239 6B56 06A0  32        BL @DSKIN
     6B58 77EA     
1240 6B5A 0283  22        CI R3,1
     6B5C 0001     
1241 6B5E 112D  14        JLT LOADIO    ; if data length < 1 then FILE I/O ERROR (file corrupt)
1242 6B60 C003  18        MOV R3,R0     ; make a temporary copy for checks
1243 6B62 C1E0  30        MOV @TEMPF3,R7  ; address in R7
     6B64 833C     
1244 6B66 0287  22        CI R7,>4000
     6B68 4000     
1245 6B6A 1A1F  14        JL LDMEM
1246 6B6C 0287  22        CI R7,>A000
     6B6E A000     
1247 6B70 141C  14        JHE LDMEM
1248               * load VDP
1249 6B72 A007  18        A R7,R0
1250 6B74 1122  14        JLT LOADIO    ; if start + length wraps 16k ( >= >8000 ) then FILE I/O ERROR (file corrupt)
1251 6B76 0227  22        AI R7,-16384  ; adjust start address
     6B78 C000     
1252               * do loads in chunks using VDPBUF as intermediate space
1253 6B7A C205  18 LDVDP1 MOV R5,R8     ; R8 = min(buff_left,file_len)
1254 6B7C 80C5  18        C R5,R3
1255 6B7E 1A01  14        JL LDVDP2
1256 6B80 C203  18        MOV R3,R8
1257 6B82 C807  30 LDVDP2 MOV R7,@TEMPF3  ; save working VDP address since DSKIN will need the CPU buffer location
     6B84 833C     
1258 6B86 C3C8  18        MOV R8,R15    ; make a copy of R8 since DSKIN will clear it
1259 6B88 60C8  18        S R8,R3       ; file_len left after write
1260 6B8A 0207  20        LI R7,VDPBUF  ; CPU buffer location
     6B8C 2200     
1261 6B8E 06A0  32        BL @DSKIN     ; read record
     6B90 77EA     
1262 6B92 C020  30        MOV @TEMPF3,R0  ; copy CPU buffer to VDP
     6B94 833C     
1263 6B96 0201  20        LI R1,VDPBUF
     6B98 2200     
1264 6B9A C08F  18        MOV R15,R2
1265 6B9C 06A0  32        BL @VMBW
     6B9E 7B3C     
1266 6BA0 C1C0  18        MOV R0,R7     ; R0 not modified so still contains TEMPF3/old R7
1267 6BA2 A1CF  18        A R15,R7      ; new R7 adds file length read
1268 6BA4 C0C3  18        MOV R3,R3     ; set flags on file length remaining to read
1269 6BA6 16E9  14        JNE LDVDP1    ; if more data, repeat
1270 6BA8 1044  14        JMP LOADCL    ; else close file
1271 6BAA A007  18 LDMEM  A R7,R0
1272 6BAC 1302  14        JEQ LDMEM1    ; okay if last byte included (R0=0)
1273 6BAE 81C0  18        C R0,R7
1274 6BB0 1A04  14        JL LOADIO     ; if data start + data length wraps (is lower than data start) then ILLEGAL QUANTITY
1275 6BB2 C203  18 LDMEM1 MOV R3,R8     ; full length of file in load length
1276 6BB4 06A0  32        BL @DSKIN
     6BB6 77EA     
1277 6BB8 103C  14        JMP LOADCL
1278               
1279 6BBA 0460  28 LOADIO B @DSKERR
     6BBC 782E     
1280 6BBE 0203  20 LOADSE LI R3,SYNMSG
     6BC0 7560     
1281 6BC2 1002  14        JMP LOADER
1282 6BC4 0203  20 LOADIQ LI R3,IQMSG
     6BC6 7567     
1283 6BC8 0200  20 LOADER LI R0,VDPPAB
     6BCA 373E     
1284 6BCC 0201  20        LI R1,DSRCLS
     6BCE 0100     
1285 6BD0 06A0  32        BL @VSBW
     6BD2 7B0A     
1286 6BD4 0420  50        BLWP @DSRLNK  ; close open file (don't care about checking for errors on close)
     6BD6 7AEE     
1287 6BD8 0460  28        B @ERROR
     6BDA 751E     
1288               
1289               * put code here for reading line table entry linenum, line table entry linelen, line string including null
1290               * stop after reading linenum=-1 and setting lineptr
1291               * set linelen=0, close file
1292 6BDC 0620  26 LOADJB DEC @TEMPF2   ; set program/data flag to PROGRAM
     6BDE 833A     
1293 6BE0 C820  42        MOV @TEMPF3,@TEMPF3  ; set flags to check load address
     6BE2 833C     
     6BE4 833C     
1294 6BE6 16E9  14        JNE LOADIO    ; if non-zero then report FILE IO error (incorrect file type for options)
1295 6BE8 0207  20        LI R7,TXTBOT
     6BEA A000     
1296 6BEC C807  30        MOV R7,@TEMPF1  ; setup for first line table entry pointer
     6BEE 8338     
1297 6BF0 0207  20        LI R7,LINBOT  ; setup for first line table entry
     6BF2 25C0     
1298 6BF4 C3C7  18        MOV R7,R15
1299 6BF6 0208  20 LOADBA LI R8,2       ; 2 bytes for line number
     6BF8 0002     
1300 6BFA 06A0  32        BL @DSKIN     ; read line table entry line number
     6BFC 77EA     
1301 6BFE CDE0  46        MOV @TEMPF1,*R7+  ; write line table entry pointer
     6C00 8338     
1302 6C02 0708  14        SETO R8
1303 6C04 821F  26        C *R15,R8
1304 6C06 1310  14        JEQ LOADDN    ; if line table entry line number is -1 then done loading
1305 6C08 0208  20        LI R8,2       ; 2 bytes for line length
     6C0A 0002     
1306 6C0C 06A0  32        BL @DSKIN     ; read line table entry length
     6C0E 77EA     
1307 6C10 C1EF  34        MOV @2(R15),R7  ; actual line entry pointer for string
     6C12 0002     
1308 6C14 C22F  34        MOV @4(R15),R8  ; actual line entry length for string
     6C16 0004     
1309 6C18 06A0  32        BL @DSKIN     ; read string into memory
     6C1A 77EA     
1310 6C1C C807  30        MOV R7,@TEMPF1  ; set next line table entry pointer
     6C1E 8338     
1311 6C20 022F  22        AI R15,LTESIZ  ; set pointer to next entry
     6C22 0006     
1312 6C24 C1CF  18        MOV R15,R7
1313 6C26 10E7  14        JMP LOADBA    ; repeat on next line table entry
1314 6C28 04C8  14 LOADDN CLR R8
1315 6C2A CBC8  38        MOV R8,@4(R15)  ; clear line table entry length of -1 line
     6C2C 0004     
1316 6C2E C80F  30        MOV R15,@LINTOP  ; make -1 line the top of the line table
     6C30 8322     
1317 6C32 06A0  32 LOADCL BL @CLOSE     ; close file and clear OPENED flag
     6C34 77D0     
1318 6C36 C3E0  30        MOV @TEMPF2,R15  ; check program/data flag
     6C38 833A     
1319 6C3A 1302  14        JEQ LOADRT
1320 6C3C 0460  28        B @SEND       ; DATA = do not try to continue running if the line table changed
     6C3E 67EE     
1321 6C40 060A  14 LOADRT DEC R10       ; PROGRAM = backup so CHRGET works
1322 6C42 06A0  28        BL @CHRGET    ; prime NXTSTT with character
     6C44 832C     
1323 6C46 0460  28        B @NXTSTT
     6C48 6228     
1324               
1325               * save"filename" : save BASIC program to file
1326               * save"filename",start,length : copy data memory to file
1327               * save"filename",start,length : copy video memory to file (start in >4000->8FFF)
1328 6C4A 070F  14 SSAVE  SETO R15      ; SAVE flag
1329 6C4C 06A0  32        BL @LSOPT     ; get filename and open file, returns with CHKEND condition set
     6C4E 6D8E     
1330 6C50 165A  14        JNE SAVBAS    ; if no more options then save BASIC program
1331 6C52 028E  22        CI R14,','*>0100
     6C54 2C00     
1332 6C56 16B3  14        JNE LOADSE    ; if no comma then SYNTAX ERROR
1333 6C58 06A0  32        BL @GETVC     ; modifies R3,4,5 to get start address in R5
     6C5A 75CE     
1334 6C5C C805  30        MOV R5,@TEMPF3    ; address in TEMPF3
     6C5E 833C     
1335 6C60 028E  22        CI R14,','*>0100
     6C62 2C00     
1336 6C64 16AC  14        JNE LOADSE    ; if no comma then SYNTAX ERROR
1337 6C66 06A0  32        BL @GETVC     ; modifies R3,4,5 to get length in R5
     6C68 75CE     
1338 6C6A C0C5  18        MOV R5,R3     ; length in R3
1339 6C6C 0283  22        CI R3,>1
     6C6E 0001     
1340 6C70 11A9  14        JLT LOADIQ    ; if data length 0 or negative then ILLEGAL QUANTITY
1341 6C72 C120  30        MOV @TEMPF3,R4
     6C74 833C     
1342 6C76 A144  18        A R4,R5
1343 6C78 1302  14        JEQ SSAVE0    ; okay if last byte included (R5=0)
1344 6C7A 8105  18        C R5,R4
1345 6C7C 1AA3  14        JL LOADIQ     ; if data start + data length wraps (is lower than data start) then ILLEGAL QUANTITY
1346 6C7E C104  18 SSAVE0 MOV R4,R4     ; set flags on load address
1347 6C80 1105  14        JLT SSAVE1    ; >= >8000 then not in VDP
1348 6C82 0284  22        CI R4,>4000
     6C84 4000     
1349 6C86 1A02  14        JL SSAVE1     ; < >4000 then not in VDP
1350 6C88 C145  18        MOV R5,R5     ; set flags on final address
1351 6C8A 119C  14        JLT LOADIQ    ; if in VDP and start + length wraps 16k (>= >8000) then ILLEGAL QUANTITY
1352               * write common header for data files
1353 6C8C 0204  20 SSAVE1 LI R4,VDPPAB+PABSIZ  ; buffer pointer
     6C8E 3758     
1354 6C90 0205  20        LI R5,128     ; buffer remaining
     6C92 0080     
1355 6C94 020F  20        LI R15,'J'*>0100+'D'  ; header of BASIC data files
     6C96 4A44     
1356 6C98 0207  20        LI R7,15*2+BASWP  ; address of R15
     6C9A 831E     
1357 6C9C 0208  20        LI R8,2       ; 2 bytes for 'JD'
     6C9E 0002     
1358 6CA0 06A0  32        BL @DSKOUT
     6CA2 7846     
1359 6CA4 C3E0  30        MOV @TEMPF3,R15   ; start address
     6CA6 833C     
1360 6CA8 0207  20        LI R7,15*2+BASWP  ; address of R15
     6CAA 831E     
1361 6CAC 0208  20        LI R8,2       ; 2 bytes for address
     6CAE 0002     
1362 6CB0 06A0  32        BL @DSKOUT
     6CB2 7846     
1363 6CB4 0207  20        LI R7,3*2+BASWP  ; address of R3
     6CB6 8306     
1364 6CB8 0208  20        LI R8,2       ; 2 bytes for length
     6CBA 0002     
1365 6CBC 06A0  32        BL @DSKOUT
     6CBE 7846     
1366 6CC0 C1E0  30        MOV @TEMPF3,R7    ; address in R7
     6CC2 833C     
1367               *       DEC R10       ; backup so the CHRGET in SAVCLS won't miss the next character (GETVC already advanced)
1368               * identify which memory flow to use
1369 6CC4 0287  22        CI R7,>4000
     6CC6 4000     
1370 6CC8 1A1A  14        JL SAVMEM
1371 6CCA 0287  22        CI R7,>A000
     6CCC A000     
1372 6CCE 1417  14        JHE SAVMEM
1373               * save VDP
1374 6CD0 0227  22        AI R7,-16384  ; adjust start address
     6CD2 C000     
1375               * do saves in chunks using VDPBUF as intermediate space
1376 6CD4 C205  18 SAVVD1 MOV R5,R8     ; R8 = min(buff_left,file_len)
1377 6CD6 80C5  18        C R5,R3
1378 6CD8 1A01  14        JL SAVVD2
1379 6CDA C203  18        MOV R3,R8
1380 6CDC 60C8  18 SAVVD2 S R8,R3       ; file_len left after write
1381 6CDE C007  18        MOV R7,R0     ; copy VDP to CPU buffer
1382 6CE0 A1C8  18        A R8,R7       ; identify next VDP address
1383 6CE2 C3C7  18        MOV R7,R15    ; save that next VDP address
1384 6CE4 0201  20        LI R1,VDPBUF
     6CE6 2200     
1385 6CE8 C088  18        MOV R8,R2
1386 6CEA 06A0  32        BL @VMBR
     6CEC 7B24     
1387 6CEE 0207  20        LI R7,VDPBUF  ; CPU buffer is to be written to disk
     6CF0 2200     
1388 6CF2 06A0  32        BL @DSKOUT    ; write record
     6CF4 7846     
1389 6CF6 C1CF  18        MOV R15,R7    ; recover next VDP address
1390 6CF8 C0C3  18        MOV R3,R3     ; set flags for remaining file length to write
1391 6CFA 16EC  14        JNE SAVVD1    ; if more data, repeat
1392 6CFC 102B  14        JMP SAVDON    ; else finish last record and close file
1393 6CFE C203  18 SAVMEM MOV R3,R8     ; full length of file in save length
1394 6D00 06A0  32        BL @DSKOUT
     6D02 7846     
1395 6D04 1027  14        JMP SAVDON
1396               
1397 6D06 0204  20 SAVBAS LI R4,VDPPAB+PABSIZ  ; buffer pointer
     6D08 3758     
1398 6D0A 0205  20        LI R5,128     ; buffer remaining
     6D0C 0080     
1399 6D0E 020F  20        LI R15,'J'*>0100+'B'  ; header of BASIC program files
     6D10 4A42     
1400 6D12 0207  20        LI R7,15*2+BASWP  ; address of R15
     6D14 831E     
1401 6D16 0208  20        LI R8,2       ; 2 bytes for 'JB'
     6D18 0002     
1402 6D1A 06A0  32        BL @DSKOUT
     6D1C 7846     
1403 6D1E 0207  20        LI R7,LINBOT  ; setup for first line table entry
     6D20 25C0     
1404               * put code here for writing line table entry linenum, line table entry linelen, line string including null
1405               * stop after writing linenum=-1
1406               * clear remainder of record and write final record, close file
1407 6D22 C3D7  26 SAVBA1 MOV *R7,R15   ; save line number for later
1408 6D24 0208  20        LI R8,2       ; 2 bytes for line number
     6D26 0002     
1409 6D28 06A0  32        BL @DSKOUT    ; write line number
     6D2A 7846     
1410 6D2C 028F  22        CI R15,>FFFF
     6D2E FFFF     
1411 6D30 1311  14        JEQ SAVDON    ; if line number written was -1 then close out file
1412 6D32 C837  42        MOV *R7+,@TEMPF2  ; TEMPF2=line string pointer
     6D34 833A     
1413 6D36 C3D7  26        MOV *R7,R15    ; R15=line length
1414 6D38 0208  20        LI R8,2       ; 2 bytes for line length
     6D3A 0002     
1415 6D3C 06A0  32        BL @DSKOUT    ; write line length
     6D3E 7846     
1416 6D40 C807  30        MOV R7,@TEMPF1  ; save line table pointer pointing to next line table entry
     6D42 8338     
1417 6D44 C1E0  30        MOV @TEMPF2,R7  ; point to line string
     6D46 833A     
1418 6D48 C20F  18        MOV R15,R8    ; set line length
1419 6D4A 06A0  32        BL @DSKOUT    ; write line string
     6D4C 7846     
1420 6D4E C1E0  30        MOV @TEMPF1,R7  ; recover line table pointer
     6D50 8338     
1421 6D52 10E7  14        JMP SAVBA1    ; repeat on next line table entry
1422               
1423               * common routine to finish saving and close file
1424 6D54 C004  18 SAVDON MOV R4,R0
1425 6D56 04C1  14        CLR R1
1426 6D58 C085  18        MOV R5,R2
1427 6D5A 0285  22        CI R5,128
     6D5C 0080     
1428 6D5E 1304  14        JEQ SAVCLS    ; if buffer full then skip clearing buffer
1429 6D60 06A0  32        BL @VMBS      ; clear remainder of buffer
     6D62 7B5A     
1430 6D64 0420  50        BLWP @DSRLNK  ; write last record
     6D66 7AEE     
1431 6D68 06A0  32 SAVCLS BL @CLOSE     ; close file and clear OPENED flag
     6D6A 77D0     
1432               *       BL @CHRGET    ; prime NXTSTT with character
1433 6D6C D39A  26        MOVB *R10,R14  ; prime NXTSTT with character
1434 6D6E 0460  28        B @NXTSTT
     6D70 6228     
1435 6D72 0460  28 SAVEIO B @DSKERR
     6D74 782E     
1436               *SAVEIQ B @IQERR not referenced
1437 6D76 0203  20 SAVESE LI R3,SYNMSG
     6D78 7560     
1438 6D7A 0200  20 SAVEER LI R0,VDPPAB
     6D7C 373E     
1439 6D7E 0201  20        LI R1,DSRCLS
     6D80 0100     
1440 6D82 06A0  32        BL @VSBW
     6D84 7B0A     
1441 6D86 0420  50        BLWP @DSRLNK  ; close open file (don't care about checking for errors on close)
     6D88 7AEE     
1442 6D8A 0460  28        B @ERROR
     6D8C 751E     
1443               
1444               * get LOAD/SAVE options #1 (filename), setup PAB, and open file
1445               * Note: use R15 to identify LOAD(0) vs SAVE(-1)
1446               * get filename into PAB
1447 6D8E C80B  30 LSOPT  MOV R11,@TEMPF4  ; stash return address so subroutines can be used (can't use R12 b/c GETVC does)
     6D90 833E     
1448 6D92 04C1  14        CLR R1        ; can't use R0 as index register
1449 6D94 06A0  28        BL @CHRGET
     6D96 832C     
1450 6D98 028E  22        CI R14,'"'*>0100
     6D9A 2200     
1451 6D9C 130B  14        JEQ LSPREQ
1452 6D9E 028E  22        CI R14,TSTR*>0100
     6DA0 AC00     
1453 6DA2 16E9  14        JNE SAVESE    ; if not followed by quote or STR$( then SYNTAX ERROR
1454 6DA4 06A0  32        BL @GETVC
     6DA6 75CE     
1455 6DA8 028E  22        CI R14,')'*>0100
     6DAA 2900     
1456 6DAC 16E4  14        JNE SAVESE    ; if not followed by ) then SYNTAX ERROR
1457               * pre-STR$ flow
1458 6DAE 0702  14        SETO R2       ; set flag to STR$ flow
1459 6DB0 C005  18        MOV R5,R0     ; use R0 for string pointer
1460 6DB2 1003  14        JMP LSOPT1    ; jump to common copy routine
1461 6DB4 058A  14 LSPREQ INC R10       ; move past the quotation mark
1462 6DB6 C00A  18        MOV R10,R0    ; use R0 for string pointer
1463 6DB8 04C2  14        CLR R2        ; set flag to quote flow
1464               *common copy flow
1465 6DBA D870  48 LSOPT1 MOVB *R0+,@PABNAM(R1)
     6DBC 25B0     
1466 6DBE 1102  14        JLT LSOPT2
1467 6DC0 0581  14        INC R1
1468 6DC2 10FB  14        JMP LSOPT1
1469 6DC4 D3A1  34 LSOPT2 MOVB @PABNAM(R1),R14  ; invert last character of string literal
     6DC6 25B0     
1470 6DC8 054E  14        INV R14
1471 6DCA D84E  38        MOVB R14,@PABNAM(R1)
     6DCC 25B0     
1472 6DCE 04CE  14        CLR R14       ; cleanup, INV left FF in low byte of R14...never allowed!
1473 6DD0 0581  14        INC R1
1474 6DD2 C801  38        MOV R1,@PABFNL-1  ; write (screen offset=0 and) filename length byte
     6DD4 25AE     
1475               *common finish
1476 6DD6 D082  18        MOVB R2,R2    ; set flags to flow
1477 6DD8 1602  14        JNE LSPAB
1478               * post-quote flow
1479 6DDA 0600  14        DEC R0        ; backup for quote version to use CHRGET
1480 6DDC C280  18        MOV R0,R10    ; only quote flow needs to change R10
1481               * update rest of PAB
1482 6DDE 02E0  18 LSPAB  LWPI CPUPAB   ; make registers point to PAB for speed
     6DE0 25A6     
1483 6DE2 0200  24        LI R0,DSROPN+>0B   ; OPEN, clear error, FIXED, OUTPUT, RELATIVE *** different between LOAD/SAVE
     6DE4 000B     
1484 6DE6 C820  42        MOV @2*15+BASWP,@2*15+BASWP  ; set flags based on original R15
     6DE8 831E     
     6DEA 831E     
1485 6DEC 1601  14        JNE LSPAB1
1486 6DEE 05C0  22        INCT R0       ; change OUTPUT to INPUT for LOAD
1487 6DF0 0201  24 LSPAB1 LI R1,VDPPAB+PABSIZ  ; VDP buffer address
     6DF2 3758     
1488 6DF4 0202  24        LI R2,>8080   ; 128 byte records
     6DF6 8080     
1489 6DF8 04C3  22        CLR R3        ; record number 0
1490 6DFA 02E0  18        LWPI BASWP    ; point registers back to normal workspace
     6DFC 8300     
1491               * copy PAB
1492 6DFE 0200  20        LI R0,VDPPAB
     6E00 373E     
1493 6E02 0201  20        LI R1,CPUPAB
     6E04 25A6     
1494 6E06 0202  20        LI R2,PABSIZ
     6E08 001A     
1495 6E0A 06A0  32        BL @VMBW      ; copy CPU PAB to VDP PAB
     6E0C 7B3C     
1496 6E0E 0220  22        AI R0,PABFNL-CPUPAB  ; compute VDP address of filename length position
     6E10 0009     
1497 6E12 C800  30        MOV R0,@DSRNAM  ; tell the device driver where to find the filename
     6E14 8356     
1498               * perform OPEN
1499 6E16 04E0  26        CLR @GPLSTS   ; always clear status before calling DSRLNK
     6E18 837C     
1500 6E1A 0420  50        BLWP @DSRLNK  ; invoke device driver to open file
     6E1C 7AEE     
1501 6E1E 0700  14        SETO R0
1502 6E20 D800  38        MOVB R0,@OPENED  ; flag that a file is open
     6E22 2535     
1503 6E24 0200  20        LI R0,VDPPAB+1
     6E26 373F     
1504 6E28 06A0  32        BL @VSBR      ; read device driver flags after operation
     6E2A 7AF6     
1505 6E2C 0241  22        ANDI R1,>7000  ; only look at status bits
     6E2E 7000     
1506 6E30 16A0  14        JNE SAVEIO    ; if non-zero then report FILE IO error (other error)
1507 6E32 D060  30        MOVB @GPLSTS,R1  ; read GPL status byte
     6E34 837C     
1508 6E36 0241  22        ANDI R1,>2000  ; only look at status bit
     6E38 2000     
1509 6E3A 169B  14        JNE SAVEIO    ; if DSR status bit set then report FILE IO error (bad device name)
1510 6E3C 0200  20        LI R0,VDPPAB
     6E3E 373E     
1511 6E40 0201  20        LI R1,DSRWR  *** different between LOAD/SAVE
     6E42 0300     
1512 6E44 C3CF  18        MOV R15,R15   ; set flags
1513 6E46 1602  14        JNE LSPAB2
1514 6E48 0201  20        LI R1,DSRRD
     6E4A 0200     
1515 6E4C 06A0  32 LSPAB2 BL @VSBW      ; update VDP PAB operation to READ/WRITE
     6E4E 7B0A     
1516 6E50 04C3  14        CLR R3        ; placeholder for file length
1517 6E52 0204  20        LI R4,VDPPAB+PABSIZ  ; buffer pointer
     6E54 3758     
1518 6E56 0205  20        LI R5,>80     ; buffer left
     6E58 0080     
1519 6E5A C320  30        MOV @TEMPF4,R12  ; recover saved return address, but don't use R11 since CHRGET/CHKEND will
     6E5C 833E     
1520 6E5E 06A0  28        BL @CHRGET    ; read next character
     6E60 832C     
1521 6E62 06A0  32        BL @CHKEND    ; determine if it is a null, set R15 to 1 if null
     6E64 7658     
1522 6E66 045C  20        B *R12
1523               
1524               * skip to next line number
1525               * function to advance line pointer and check for end of program
1526 6E68 D3BA  28 SREM   MOVB *R10+,R14  ; advance TXTPTR (okay to not use CHRGET since we also skip spaces this way)
1527 6E6A 16FE  14        JNE SREM        ; until end of line marker
1528 6E6C 060A  14        DEC R10         ; rewind to the null at end of line (skipped by autoincrement)
1529 6E6E 04CE  14        CLR R14         ; since we know character is null no need to MOVB *R10,R14 (faster)
1530 6E70 0460  28        B @NXTSTT
     6E72 6228     
1531 6E74 0460  28 LETIQ  B @IQERR
     6E76 7514     
1532               * change a variable or address
1533 6E78 C18E  18 SLET   MOV R14,R6
1534 6E7A 06C6  14        SWPB R6
1535 6E7C 020F  20        LI R15,TLET
     6E7E 00B1     
1536 6E80 618F  18        S R15,R6        ; R6 contains variable number
1537 6E82 0286  22        CI R6,VARAT
     6E84 001A     
1538 6E86 1615  14        JNE LETVAR
1539 6E88 06A0  32        BL @GETVC       ; determine address
     6E8A 75CE     
1540 6E8C C1C5  18        MOV R5,R7       ; R7 contains address
1541 6E8E 0B15  18        SRC R5,1        ; test if even/odd
1542 6E90 18F1  14        JOC LETIQ       ; if odd then ILLEGAL QUANTITY
1543 6E92 C217  26        MOV *R7,R8      ; R8 contains value
1544 6E94 028E  22        CI R14,TEQUAL*>0100  ; no need to CHRGET because GETVC does it automatically
     6E96 9200     
1545 6E98 1311  14        JEQ LETCON      ; if equal sign continue with LET as normal
1546 6E9A 028E  22        CI R14,TADD*>0100
     6E9C 9800     
1547 6E9E 1603  14        JNE ADRDEC      ; if not plus sign check for minus sign
1548 6EA0 0588  14        INC R8          ; plus sign: increment and done
1549 6EA2 0460  28        B @LETRET
     6EA4 701E     
1550 6EA6 028E  22 ADRDEC CI R14,TSUB*>0100
     6EA8 9900     
1551 6EAA 163D  14        JNE LET2C       ; if not equal, plus, or minus then SYNTAX ERROR
1552 6EAC 0608  14        DEC R8          ; minus sign: decrement and done
1553 6EAE 0460  28        B @LETRET
     6EB0 701E     
1554 6EB2 020F  20 LETVAR LI R15,VARS
     6EB4 2500     
1555 6EB6 C1C6  18        MOV R6,R7
1556 6EB8 A1C7  18        A R7,R7         ; double variable number = offset of variable
1557 6EBA A1CF  18        A R15,R7        ; R7 contains address
1558 6EBC 06A0  28 LETCON BL @CHRGET      ; fetch 1st parameter after the statement token
     6EBE 832C     
1559 6EC0 028E  22        CI R14,TRND*>0100
     6EC2 AA00     
1560 6EC4 1615  14        JNE LET1
1561               * RND
1562 6EC6 C260  30        MOV @RAND1,R9
     6EC8 8328     
1563 6ECA C3E0  30        MOV @RAND2,R15
     6ECC 832A     
1564 6ECE C209  18        MOV R9,R8
1565 6ED0 0A58  26        SLA R8,5
1566 6ED2 2A09  18        XOR R9,R8
1567 6ED4 C248  18        MOV R8,R9
1568 6ED6 0938  22        SRL R8,3
1569 6ED8 2A09  18        XOR R9,R8
1570 6EDA 2A0F  18        XOR R15,R8
1571 6EDC C24F  18        MOV R15,R9
1572 6EDE 091F  18        SRL R15,1
1573 6EE0 2BC8  18        XOR R8,R15
1574 6EE2 C20F  18        MOV R15,R8
1575 6EE4 C80F  30        MOV R15,@RAND2
     6EE6 832A     
1576 6EE8 C809  30        MOV R9,@RAND1
     6EEA 8328     
1577 6EEC 0460  28        B @LETRET       ; need to use branch because LET is too long to jump across
     6EEE 701E     
1578 6EF0 028E  22 LET1   CI R14,TNOT*>0100
     6EF2 A600     
1579 6EF4 1607  14        JNE LET2
1580               * NOT numeric
1581 6EF6 06A0  32        BL @GETVC
     6EF8 75CE     
1582 6EFA C205  18        MOV R5,R8
1583 6EFC 0548  14        INV R8
1584 6EFE 060A  14        DEC R10         ; roll back TXTPTR off of end marker so LETRET can fix it
1585 6F00 0460  28        B @LETRET       ; need to use branch because LET is too long to jump across
     6F02 701E     
1586 6F04 028E  22 LET2   CI R14,TSUB*>0100
     6F06 9900     
1587 6F08 1607  14        JNE LET2B
1588               * -numeric (could be done by making first argument 0 and jumping to the two operand function,
1589               *           but it is faster and easier to just negate the argument presented)
1590 6F0A 06A0  32        BL @GETVC
     6F0C 75CE     
1591 6F0E C205  18        MOV R5,R8
1592 6F10 0508  14        NEG R8
1593 6F12 060A  14        DEC R10         ; roll back TXTPTR off of end marker so LETRET can fix it
1594 6F14 0460  28        B @LETRET       ; need to use branch because LET is too long to jump across
     6F16 701E     
1595 6F18 028E  22 LET2B  CI R14,TPEEK*>0100
     6F1A A900     
1596 6F1C 1609  14        JNE LET2D
1597               * PEEK(numeric)
1598 6F1E 06A0  32        BL @GETVC
     6F20 75CE     
1599 6F22 028E  22        CI R14,')'*>0100
     6F24 2900     
1600 6F26 160B  14 LET2C  JNE LETSE       ; if no closing ) then syntax error
1601 6F28 04C8  14        CLR R8
1602 6F2A D215  26        MOVB *R5,R8     ; read byte
1603 6F2C 06C8  14        SWPB R8         ; put in LSB
1604 6F2E 1077  14        JMP LETRET
1605 6F30 028E  22 LET2D  CI R14,TDPEEK*>0100
     6F32 A700     
1606 6F34 1609  14        JNE LET3
1607               * DPEEK(numeric)
1608 6F36 06A0  32        BL @GETVC
     6F38 75CE     
1609 6F3A 028E  22        CI R14,')'*>0100
     6F3C 2900     
1610 6F3E 1674  14 LETSE  JNE LETSYN      ; if no closing ) then syntax error
1611 6F40 C215  26        MOV *R5,R8      ; read word
1612 6F42 0B15  18        SRC R5,1        ; test if even/odd
1613 6F44 1897  14        JOC LETIQ       ; if odd then illegal quantity error
1614 6F46 106B  14        JMP LETRET
1615 6F48 028E  22 LET3   CI R14,TVPEEK*>0100
     6F4A A800     
1616 6F4C 160F  14        JNE LET4
1617               * VPEEK(numeric)
1618 6F4E 06A0  32        BL @GETVC
     6F50 75CE     
1619 6F52 028E  22        CI R14,')'*>0100
     6F54 2900     
1620 6F56 1668  14        JNE LETSYN      ; if no closing ) then syntax error
1621 6F58 0285  22        CI R5,>4000
     6F5A 4000     
1622 6F5C 148B  14        JHE LETIQ       ; if address too large then illegal quantity error
1623 6F5E C005  18        MOV R5,R0
1624 6F60 06A0  32        BL @VSBR        ; read byte from VDP RAM
     6F62 7AF6     
1625 6F64 04C8  14        CLR R8
1626 6F66 D201  18        MOVB R1,R8      ; put byte in result register
1627 6F68 06C8  14        SWPB R8         ; put in LSB
1628 6F6A 1059  14        JMP LETRET
1629 6F6C 028E  22 LET4   CI R14,TLEN*>0100
     6F6E AB00     
1630 6F70 160C  14        JNE LET4B
1631               * LEN(numeric)
1632 6F72 06A0  32        BL @GETVC
     6F74 75CE     
1633 6F76 028E  22        CI R14,')'*>0100
     6F78 2900     
1634 6F7A 1656  14        JNE LETSYN      ; if no closing ) then syntax error
1635 6F7C 04C8  14        CLR R8
1636 6F7E 0206  20        LI R6,>8000
     6F80 8000     
1637 6F82 0588  14 LET4A  INC R8
1638 6F84 91B5  28        CB *R5+,R6
1639 6F86 1AFD  14        JL LET4A       ; if character is lower than 128 check next character
1640 6F88 104A  14        JMP LETRET
1641 6F8A 028E  22 LET4B  CI R14,TVAL*>0100
     6F8C AD00     
1642 6F8E 1608  14        JNE LET4C
1643               * VAL(numeric)
1644 6F90 06A0  32        BL @GETVC
     6F92 75CE     
1645 6F94 028E  22        CI R14,')'*>0100
     6F96 2900     
1646 6F98 1647  14        JNE LETSYN      ; if no closing ) then syntax error
1647 6F9A 06A0  32        BL @ATOI        ; convert string at R5 to number in R8
     6F9C 7888     
1648 6F9E 103F  14        JMP LETRET
1649 6FA0 028E  22 LET4C  CI R14,TASC*>0100
     6FA2 AE00     
1650 6FA4 161A  14        JNE LET5
1651               * ASC("string literal")
1652 6FA6 06A0  28        BL @CHRGET
     6FA8 832C     
1653 6FAA 028E  22        CI R14,'"'*>0100
     6FAC 2200     
1654 6FAE 163C  14        JNE LETSYN      ; if no quote then syntax error
1655 6FB0 058A  14        INC R10         ; don't use CHRGET since spaces matter
1656 6FB2 D21A  26        MOVB *R10,R8    ; read first character of string literal
1657 6FB4 D39A  26        MOVB *R10,R14   ; keep a copy since R8 will be modified
1658 6FB6 0288  22        CI R8,>8000
     6FB8 8000     
1659 6FBA 1A01  14        JL LET4D
1660 6FBC 0548  14        INV R8          ; if negative, invert
1661 6FBE 06C8  14 LET4D  SWPB R8         ; put result in low byte
1662 6FC0 0248  22        ANDI R8,>00FF   ; mask off high byte
     6FC2 00FF     
1663 6FC4 D38E  18        MOVB R14,R14    ; check if end of string
1664 6FC6 1103  14 LET4E  JLT LET4F       ; if it was negative then finish up
1665 6FC8 058A  14        INC R10
1666 6FCA D39A  26        MOVB *R10,R14   ; advance one character in the string
1667 6FCC 10FC  14        JMP LET4E
1668 6FCE 06A0  28 LET4F  BL @CHRGET      ; get next character, skipping spaces
     6FD0 832C     
1669 6FD2 028E  22        CI R14,')'*>0100
     6FD4 2900     
1670 6FD6 1628  14        JNE LETSYN      ; if no closing ) then syntax error
1671 6FD8 1022  14        JMP LETRET
1672               * numeric
1673 6FDA 060A  14 LET5   DEC R10         ; put back token so GETVC sees it
1674 6FDC 06A0  32        BL @GETVC
     6FDE 75CE     
1675 6FE0 C003  18        MOV R3,R0
1676 6FE2 C044  18        MOV R4,R1
1677 6FE4 C085  18        MOV R5,R2
1678 6FE6 06A0  32        BL @CHKEND      ; check if EOS/EOL (GETVC includes implicit CHRGET)
     6FE8 7658     
1679 6FEA 1303  14        JEQ LET6
1680 6FEC 060A  14        DEC R10         ; roll back TXTPTR off of end marker so LETRET can fix it
1681 6FEE C202  18        MOV R2,R8       ; make single argument's value the result value
1682 6FF0 1016  14        JMP LETRET
1683               * numeric operator numeric
1684 6FF2 04C4  14 LET6   CLR R4          ; clear R4 so byte operations work
1685 6FF4 D11A  26        MOVB *R10,R4    ; CHKEND cleared R14 so fetch it again
1686 6FF6 06C4  14        SWPB R4         ; change from byte to word format
1687 6FF8 0203  20        LI R3,TSHIFT
     6FFA 00A1     
1688 6FFC 80C4  18        C R4,R3
1689 6FFE 1B14  14        JH LETSYN       ; operator is outside (higher) of function range
1690 7000 0203  20        LI R3,TEQUAL
     7002 0092     
1691 7004 80C4  18        C R4,R3
1692 7006 1A10  14        JL LETSYN       ; operator is outside (lower) of function range
1693 7008 6103  18        S R3,R4         ; R4 = this token - first function token
1694 700A A104  18        A R4,R4         ; double to reflect bytes in table entries
1695 700C C824  46        MOV @FTABLE(R4),@TEMPF1  ; lookup function address and save in temp (R11/12 will be clobbered by GETVC)
     700E 605A     
     7010 8338     
1696 7012 06A0  32        BL @GETVC       ; get final argument
     7014 75CE     
1697 7016 060A  14        DEC R10         ; roll back TXTPTR off of end marker so LETRET can fix it
1698 7018 C2E0  30        MOV @TEMPF1,R11
     701A 8338     
1699 701C 069B  24        BL *R11         ; call calculated function address
1700 701E C5C8  30 LETRET MOV R8,*R7      ; save result value in result address
1701 7020 06A0  28        BL @CHRGET      ; all statements must advance
     7022 832C     
1702 7024 0460  28        B @NXTSTT
     7026 6228     
1703 7028 0460  28 LETSYN B @SYNERR
     702A 750E     
1704               * increment a variable or address
1705 702C 04C9  14 SINCRE CLR R9
1706 702E 020F  20        LI R15,TINC
     7030 00CC     
1707 7032 1003  14        JMP INCDEC
1708               * decrement a variable or address
1709 7034 0709  14 SDECRE SETO R9
1710 7036 020F  20        LI R15,TDEC
     7038 00E6     
1711 703A C18E  18 INCDEC MOV R14,R6
1712 703C 06C6  14        SWPB R6
1713 703E 06A0  28        BL @CHRGET   ; preload next token for NXTSTT
     7040 832C     
1714 7042 618F  18        S R15,R6     ; R6 contains variable number
1715 7044 020F  20        LI R15,VARS
     7046 2500     
1716 7048 C1C6  18        MOV R6,R7
1717 704A A1C7  18        A R7,R7      ; double to reflect variables stored as words
1718 704C A1CF  18        A R15,R7     ; R7 contains address
1719 704E C249  18        MOV R9,R9    ; set status
1720 7050 1102  14        JLT DODECR
1721 7052 0597  26        INC *R7      ; do increment
1722 7054 1001  14        JMP DECRET
1723 7056 0617  26 DODECR DEC *R7      ; do decrement
1724 7058 C217  26 DECRET MOV *R7,R8   ; R8 contains result value
1725 705A 0460  28        B @NXTSTT
     705C 6228     
1726               * wait for <argument> rasterline events
1727               * check VDPSTA at >8802 until bit 0 (highest) is set (value is negative)
1728 705E 06A0  32 SWAIT  BL @GETVC
     7060 75CE     
1729 7062 C145  18        MOV R5,R5
1730 7064 1306  14        JEQ WAITR    ; if already 0 exit immediately
1731 7066 D060  30 WAIT1  MOVB @VDPSTA,R1  ; get VDP status byte
     7068 8802     
1732 706A 1101  14        JLT WAIT2    ; if top bit set then screen updated
1733 706C 10FC  14        JMP WAIT1    ; repeat waiting until event
1734 706E 0605  14 WAIT2  DEC R5       ; reduce wait count by 1
1735 7070 16FA  14        JNE WAIT1    ; repeat waiting until count reaches 0
1736 7072 0460  28 WAITR  B @NXTSTT
     7074 6228     
1737               * redefine character arg1 to arg2 string literal
1738 7076 06A0  32 SCHAR  BL @GETVC
     7078 75CE     
1739 707A 0285  22        CI R5,>01FF
     707C 01FF     
1740 707E 1B47  14        JH NOTHEX     ; argument 0-511, else ILLEGAL QUANTITY
1741               * 0-255 are screen characters, 256-511 are sprite characters !ONLY IF! the sprite table is remapped
1742 7080 028E  22        CI R14,','*>0100
     7082 2C00     
1743 7084 16D1  14        JNE LETSYN   ; if next character is not , then SYNTAX ERROR
1744 7086 06A0  28        BL @CHRGET
     7088 832C     
1745 708A 028E  22        CI R14,'"'*>0100
     708C 2200     
1746 708E 16CC  14        JNE LETSYN   ; if next character is not " then SYNTAX ERROR
1747 7090 0A35  22        SLA R5,3     ; character offset is 8*character number
1748 7092 0225  22        AI R5,>0800  ; VDP offset is character offset plus pattern table base address
     7094 0800     
1749 7096 C005  18        MOV R5,R0    ; R0 = address in VDP
1750 7098 04C3  14        CLR R3       ; use R3 as pixel row counter
1751 709A 04C2  14        CLR R2       ; use R2 as end of string flag
1752 709C 0206  20        LI R6,'F'*>0100  ; ASCII F
     709E 4600     
1753 70A0 0207  20        LI R7,'A'*>0100  ; ASCII A
     70A2 4100     
1754 70A4 0208  20        LI R8,>C900  ; negative (ASCII A-10)
     70A6 C900     
1755 70A8 0209  20        LI R9,'9'*>0100  ; ASCII 9
     70AA 3900     
1756 70AC 0205  20        LI R5,'0'*>0100  ; ASCII 0
     70AE 3000     
1757 70B0 0204  20        LI R4,>D000  ; negative (ASCII 0)
     70B2 D000     
1758               * R0 = address in VDP, R1 = converted value from hex
1759 70B4 06A0  28 CHARL1 BL @CHRGET   ; get next character of string
     70B6 832C     
1760 70B8 918E  18        CB R14,R6
1761 70BA 1B29  14        JH NOTHEX    ; if > F then not a hex digit
1762 70BC 91CE  18        CB R14,R7
1763 70BE 1A02  14        JL NOTL1     ; if < A then not a letter
1764 70C0 B388  18        AB R8,R14    ; value = letter - ('A'-10)
1765 70C2 1005  14        JMP HEXDN1
1766 70C4 924E  18 NOTL1  CB R14,R9
1767 70C6 1B23  14        JH NOTHEX    ; if > 9 then not a hex digit
1768 70C8 914E  18        CB R14,R5
1769 70CA 1A21  14        JL NOTHEX    ; if < 0 then not a hex digit
1770 70CC B384  18        AB R4,R14    ; value = digit - '0'
1771 70CE D04E  18 HEXDN1 MOVB R14,R1
1772 70D0 06A0  28        BL @CHRGET   ; get next character of string
     70D2 832C     
1773 70D4 111E  14        JLT INVL2
1774 70D6 918E  18 CHARL2 CB R14,R6
1775 70D8 1B1A  14        JH NOTHEX    ; if > F then not a hex digit
1776 70DA 91CE  18        CB R14,R7
1777 70DC 1A02  14        JL NOTL2     ; if < A then not a letter
1778 70DE B388  18        AB R8,R14    ; value = letter - ('A'-10)
1779 70E0 1005  14        JMP HEXDN2
1780 70E2 924E  18 NOTL2  CB R14,R9
1781 70E4 1B14  14        JH NOTHEX    ; if > 9 then not a hex digit
1782 70E6 914E  18        CB R14,R5
1783 70E8 1A12  14        JL NOTHEX    ; if < 0 then not a hex digit
1784 70EA B384  18        AB R4,R14    ; value = digit - '0'
1785 70EC 0A41  24 HEXDN2 SLA R1,4     ; shift 1 nybble
1786 70EE 024E  22        ANDI R14,>0F00  ; clear any bits not in the nybble of interest
     70F0 0F00     
1787 70F2 F04E  18        SOCB R14,R1  ; combine nybbles
1788               * not worth saving a few cycles by using the VDP address autoincrement feature by decomposing VSBW/VMBW inline
1789 70F4 06A0  32        BL @VSBW     ; write the byte to VDP
     70F6 7B0A     
1790 70F8 0580  14        INC R0       ; advance VDP address to next byte
1791 70FA 0583  14        INC R3       ; move to next row
1792 70FC D082  18        MOVB R2,R2   ; set flags for end of string
1793 70FE 160C  14        JNE EOS
1794 7100 0283  22        CI R3,8
     7102 0008     
1795 7104 1AD7  14        JL CHARL1    ; if more rows and not end of string, go get the next character
1796 7106 06A0  28 CHARDN BL @CHRGET   ; prime character for NXTSTT
     7108 832C     
1797 710A 0460  28        B @NXTSTT
     710C 6228     
1798 710E 0460  28 NOTHEX B @IQERR     ; ILLEGAL QUANTITY
     7110 7514     
1799 7112 0702  14 INVL2  SETO R2
1800 7114 054E  14        INV R14      ; remember to clear R14 at the end of each loop
1801 7116 10DF  14        JMP CHARL2
1802 7118 0283  22 EOS    CI R3,8
     711A 0008     
1803 711C 13F4  14        JEQ CHARDN   ; if 8 bytes written then done
1804 711E 04C1  14        CLR R1
1805 7120 06A0  32        BL @VSBW     ; write a 0 for the next row since string has no more data
     7122 7B0A     
1806 7124 0580  14        INC R0       ; advance VDP address to next byte
1807 7126 0583  14        INC R3       ; move to next row
1808 7128 10F7  14        JMP EOS      ; repeat always
1809               * clear the screen
1810 712A 04C0  14 SCLEAR CLR R0       ; at top of screen
1811 712C 0201  20        LI R1,CSPACE  ; space
     712E 2000     
1812 7130 0202  20        LI R2,>0300  ; size of screen
     7132 0300     
1813 7134 06A0  32        BL @VMBS     ; clear screen
     7136 7B5A     
1814 7138 C800  30        MOV R0,@CURSOR  ; set cursor position to top left corner of screen
     713A 8326     
1815 713C 06A0  28        BL @CHRGET   ; preload next token for NXTSTT
     713E 832C     
1816 7140 0460  28        B @NXTSTT
     7142 6228     
1817               * change color of set arg1 to foreground arg2 and background arg3
1818 7144 06A0  32 SCOLOR BL @GETVC    ; arg1 is character set number
     7146 75CE     
1819 7148 C005  18        MOV R5,R0
1820 714A 028E  22        CI R14,','*>0100
     714C 2C00     
1821 714E 1635  14        JNE LOCSYN   ; if no comma then SYNTAX ERROR
1822 7150 06A0  32        BL @GETVC    ; arg2 is foreground
     7152 75CE     
1823 7154 C045  18        MOV R5,R1
1824 7156 04C5  14        CLR R5       ; default background is clear
1825 7158 06A0  32        BL @CHKEND
     715A 7658     
1826 715C 1605  14        JNE COLOR1   ; if no futher arguments then change color
1827 715E 028E  22        CI R14,','*>0100
     7160 2C00     
1828 7162 162B  14        JNE LOCSYN   ; if no comma then SYNTAX ERROR
1829 7164 06A0  32        BL @GETVC    ; optional arg3 is background
     7166 75CE     
1830 7168 0280  22 COLOR1 CI R0,31
     716A 001F     
1831 716C 1B28  14        JH LOCIQ     ; if arg1 > 31 or negative then ILLEGAL QUANTITY
1832 716E 0281  22        CI R1,15
     7170 000F     
1833 7172 1B25  14        JH LOCIQ     ; if arg2 > 15 or negative then ILLEGAL QUANTITY
1834 7174 0285  22        CI R5,15
     7176 000F     
1835 7178 1B22  14        JH LOCIQ     ; if arg3 > 15 or negative then ILLEGAL QUANTITY
1836 717A 0220  22        AI R0,>0380  ; set color memory address by adding color memory base to set number
     717C 0380     
1837 717E 0A41  24        SLA R1,4     ; foreground is high nybble
1838 7180 E045  18        SOC R5,R1    ; combine background into low nybble
1839 7182 06C1  14        SWPB R1      ; move to high byte
1840 7184 06A0  32        BL @VSBW     ; set byte in color memory
     7186 7B0A     
1841 7188 0460  28        B @NXTSTT
     718A 6228     
1842               * cursor location = row, column (row  ; columns/row + column)
1843 718C 06A0  32 SLOCAT BL @GETVC
     718E 75CE     
1844 7190 0285  22        CI R5,23
     7192 0017     
1845 7194 1B14  14        JH LOCIQ     ; legal rows 0-23
1846 7196 0201  20        LI R1,>0020  ; 32 columns per row
     7198 0020     
1847 719A 3845  58        MPY R5,R1
1848 719C C003  18        MOV R3,R0
1849 719E C044  18        MOV R4,R1
1850 71A0 028E  22        CI R14,','*>0100
     71A2 2C00     
1851 71A4 160A  14        JNE LOCSYN
1852 71A6 06A0  32        BL @GETVC
     71A8 75CE     
1853 71AA 0285  22        CI R5,31
     71AC 001F     
1854 71AE 1B07  14        JH LOCIQ     ; legal columns 0-31
1855 71B0 A085  18        A R5,R2
1856 71B2 C802  30        MOV R2,@CURSOR
     71B4 8326     
1857 71B6 0460  28        B @NXTSTT
     71B8 6228     
1858 71BA 0460  28 LOCSYN B @SYNERR
     71BC 750E     
1859 71BE 0460  28 LOCIQ  B @IQERR
     71C0 7514     
1860               * change screen backround color to 0-15
1861 71C2 06A0  32 SSCREE BL @GETVC
     71C4 75CE     
1862 71C6 0285  22        CI R5,>000F
     71C8 000F     
1863 71CA 1BF9  14        JH LOCIQ      ; if color > 15 or negative then ILLEGAL QUANTITY
1864 71CC C005  18        MOV R5,R0
1865               *       SLA R0,4     ; populate bits 7:4 for foreground (don't care except in 40 column text mode), background bits 3:0
1866 71CE 0260  22        ORI R0,>0700  ; select register 7 for screen colors
     71D0 0700     
1867 71D2 06A0  32        BL @VDPREG    ; update VDP register
     71D4 7B78     
1868 71D6 0460  28        B @NXTSTT
     71D8 6228     
1869               * re-initialize all video and audio settings in case the program left them in a bad state
1870 71DA 06A0  32 SINIT  BL @VDPINI
     71DC 7A0C     
1871 71DE 0200  20        LI R0,>8400   ; sound register
     71E0 8400     
1872 71E2 0201  20        LI R1,>9F00   ; voice 0, volume off
     71E4 9F00     
1873 71E6 D401  30        MOVB R1,*R0
1874 71E8 0201  20        LI R1,>BF00   ; voice 1, volume off
     71EA BF00     
1875 71EC D401  30        MOVB R1,*R0
1876 71EE 0201  20        LI R1,>DF00   ; voice 2, volume off
     71F0 DF00     
1877 71F2 D401  30        MOVB R1,*R0
1878 71F4 0201  20        LI R1,>FF00   ; noise, volume off
     71F6 FF00     
1879 71F8 D401  30        MOVB R1,*R0
1880 71FA 06A0  28        BL @CHRGET
     71FC 832C     
1881 71FE 0460  28        B @NXTSTT
     7200 6228     
1882               * set/clear sprite magnify and size control register bits
1883               * get arg, and with 3, or with >E0, call wrreg
1884 7202 06A0  32 SMAGNI BL @GETVC
     7204 75CE     
1885 7206 0285  22        CI R5,3
     7208 0003     
1886 720A 1BD9  14        JH LOCIQ      ; if argument >3 or negative then ILLEGAL QUANTITY
1887 720C C005  18        MOV R5,R0
1888 720E 0240  22        ANDI R0,>0003  ; use only low 2 bits
     7210 0003     
1889 7212 0260  22        ORI R0,>01E0  ; set register 1 bits
     7214 01E0     
1890 7216 06A0  32        BL @VDPREG    ; update VDP register
     7218 7B78     
1891 721A 06C0  14        SWPB R0       ; move data to high byte
1892 721C D800  30        MOVB R0,@SHDWR1  ; always write to shadow register for VDP register 1
     721E 83D4     
1893 7220 0460  28        B @NXTSTT
     7222 6228     
1894               * variable number of arguments so handle each in order
1895               * sprite #, y, x, character, color
1896 7224 06A0  32 SSPRIT BL @GETVC     ; get sprite number
     7226 75CE     
1897 7228 0285  22        CI R5,15
     722A 000F     
1898 722C 1BC8  14        JH LOCIQ      ; if sprite >15 or negative then ILLEGAL QUANTITY
1899 722E C005  18        MOV R5,R0
1900 7230 0A20  20        SLA R0,2      ; each sprite takes 4 bytes
1901 7232 0220  22        AI R0,>0300   ; start relative to sprite attribute list #0, y position
     7234 0300     
1902 7236 028E  22        CI R14,','*>0100
     7238 2C00     
1903 723A 16BF  14        JNE LOCSYN    ; if no , then SYNTAX ERROR
1904 723C 06A0  32        BL @GETVC     ; get y value
     723E 75CE     
1905 7240 0285  22        CI R5,>00FF
     7242 00FF     
1906 7244 1BBC  14        JH LOCIQ      ; if y >255 or negative then ILLEGAL QUANTITY
1907 7246 C045  18        MOV R5,R1
1908 7248 06C1  14        SWPB R1       ; VDP uses high byte
1909 724A 06A0  32        BL @VSBW      ; write one byte, doesn't increment pointer
     724C 7B0A     
1910 724E 06A0  32        BL @CHKEND    ; check if last argument
     7250 7658     
1911 7252 162C  14        JNE SPRRET    ; END=1, goto done
1912 7254 028E  22        CI R14,','*>0100
     7256 2C00     
1913 7258 16B0  14        JNE LOCSYN    ; if no , then SYNTAX ERROR
1914 725A 06A0  32        BL @GETVC     ; get x value
     725C 75CE     
1915 725E 0285  22        CI R5,>00FF
     7260 00FF     
1916 7262 1BAD  14        JH LOCIQ      ; if x >255 or negative then ILLEGAL QUANTITY
1917 7264 C045  18        MOV R5,R1
1918 7266 0580  14        INC R0        ; increment pointer
1919 7268 06C1  14        SWPB R1       ; VDP uses high byte
1920 726A 06A0  32        BL @VSBW      ; write one byte, doesn't increment pointer
     726C 7B0A     
1921 726E 06A0  32        BL @CHKEND    ; check if last argument
     7270 7658     
1922 7272 161C  14        JNE SPRRET    ; END=1, goto done
1923 7274 028E  22        CI R14,','*>0100
     7276 2C00     
1924 7278 16A0  14        JNE LOCSYN    ; if no , then SYNTAX ERROR
1925 727A 06A0  32        BL @GETVC     ; get character definition
     727C 75CE     
1926 727E C045  18        MOV R5,R1
1927 7280 0241  22        ANDI R1,>00FF  ; use only low 8 bits of character number so 0-255 or 256-512 are both acceptable
     7282 00FF     
1928 7284 0580  14        INC R0        ; increment pointer
1929 7286 06C1  14        SWPB R1       ; VDP uses high byte
1930 7288 06A0  32        BL @VSBW      ; write one byte, doesn't increment pointer
     728A 7B0A     
1931 728C 06A0  32        BL @CHKEND    ; check if last argument
     728E 7658     
1932 7290 160D  14        JNE SPRRET    ; END=1, goto done
1933 7292 028E  22        CI R14,','*>0100
     7294 2C00     
1934 7296 1691  14        JNE LOCSYN    ; if no , then SYNTAX ERROR
1935 7298 06A0  32        BL @GETVC     ; get early clock and color
     729A 75CE     
1936 729C 0285  22        CI R5,>001F
     729E 001F     
1937 72A0 1B8E  14        JH LOCIQ      ; if higher than 31 or negative then ILLEGAL QUANTITY
1938 72A2 C045  18        MOV R5,R1
1939 72A4 0580  14        INC R0        ; increment pointer
1940 72A6 06C1  14        SWPB R1       ; VDP uses high byte
1941 72A8 06A0  32        BL @VSBW      ; write one byte
     72AA 7B0A     
1942 72AC 0460  28 SPRRET B @NXTSTT
     72AE 6228     
1943               * Read joystick arg1 values into arg2, arg3, arg 4
1944 72B0 06A0  32 SJOYST BL @GETVC     ; get first argument (which joystick)
     72B2 75CE     
1945 72B4 C145  18        MOV R5,R5
1946 72B6 1375  14        JEQ SNDIQ     ; if 0 then ILLEGAL QUANTITY
1947 72B8 0200  20        LI R0,2
     72BA 0002     
1948 72BC 8005  18        C R5,R0
1949 72BE 1B71  14        JH SNDIQ      ; if >2 or negative then ILLEGAL QUANTITY
1950 72C0 0225  22        AI R5,5       ; choose column (6=joy1, 7=joy2)
     72C2 0005     
1951 72C4 06C5  14        SWPB R5       ; move to byte size
1952 72C6 C3C5  18        MOV R5,R15    ; R15 = joystick device column number
1953 72C8 020C  20        LI R12,>0024  ; R12 = set CRU to keyboard/joystick (required register number to use for CRU)
     72CA 0024     
1954 72CC 30CF  30        LDCR R15,3    ; strobe relevant keyboard/joystick line
1955 72CE 020C  20        LI R12,6      ; point to keyboard outputs
     72D0 0006     
1956 72D2 04C9  14        CLR R9        ; erase destination
1957 72D4 3609  48        STCR R9,8     ; shift 8 bits in from CRU
1958               
1959 72D6 028E  22        CI R14,','*>0100
     72D8 2C00     
1960 72DA 162B  14        JNE JOYERR    ; if no comma then SYNTAX ERROR
1961 72DC 06A0  32        BL @GETVC     ; get second argument (Y position)
     72DE 75CE     
1962 72E0 C0C3  18        MOV R3,R3     ; set flags based on constant/variable property
1963 72E2 1127  14        JLT JOYERR    ; if constant then SYNTAX ERROR
1964 72E4 C044  18        MOV R4,R1     ; save argument 2 location to R1
1965 72E6 028E  22        CI R14,','*>0100
     72E8 2C00     
1966 72EA 1623  14        JNE JOYERR    ; if no comma then SYNTAX ERROR
1967 72EC 06A0  32        BL @GETVC     ; get third argument (X position)
     72EE 75CE     
1968 72F0 C0C3  18        MOV R3,R3     ; set flags based on constant/variable property
1969 72F2 111F  14        JLT JOYERR    ; if constant then SYNTAX ERROR
1970 72F4 C1C4  18        MOV R4,R7     ; save argument 2 location to R7
1971 72F6 028E  22        CI R14,','*>0100
     72F8 2C00     
1972 72FA 161B  14        JNE JOYERR    ; if no comma then SYNTAX ERROR
1973 72FC 06A0  32        BL @GETVC     ; get fourth argument (fire position)
     72FE 75CE     
1974 7300 C0C3  18        MOV R3,R3     ; set flags based on constant/variable property
1975 7302 1117  14        JLT JOYERR    ; if constant then SYNTAX ERROR
1976               * bits in R9 are 0 if switch closed, 1 if switch open
1977 7304 04C2  14        CLR R2        ; set all outputs to 0
1978 7306 04C5  14        CLR R5
1979 7308 04C8  14        CLR R8
1980 730A 0A49  24        SLA R9,4      ; check if up switch closed
1981 730C 1801  14        JOC JOY1
1982 730E 0602  14        DEC R2
1983 7310 0A19  18 JOY1   SLA R9,1      ; check if down switch closed
1984 7312 1801  14        JOC JOY2
1985 7314 0582  14        INC R2
1986 7316 0A19  18 JOY2   SLA R9,1      ; check if right switch closed
1987 7318 1801  14        JOC JOY3
1988 731A 0588  14        INC R8
1989 731C 0A19  18 JOY3   SLA R9,1      ; check if left switch closed
1990 731E 1801  14        JOC JOY4
1991 7320 0608  14        DEC R8
1992 7322 0A19  18 JOY4   SLA R9,1      ; check if button switch closed
1993 7324 1801  14        JOC JOYFIN
1994 7326 0605  14        DEC R5
1995 7328 C442  30 JOYFIN MOV R2,*R1    ; save all outputs to their chosen variable address
1996 732A C505  30        MOV R5,*R4
1997 732C C5C8  30        MOV R8,*R7
1998 732E 0460  28        B @NXTSTT
     7330 6228     
1999 7332 0460  28 JOYERR B @SYNERR
     7334 750E     
2000               * Sound programs any voice (0-2) with frequency and volume
2001 7336 06A0  32 SSOUND BL @GETVC     ; get first argument (which voice)
     7338 75CE     
2002 733A 0285  22        CI R5,2
     733C 0002     
2003 733E 1B31  14        JH SNDIQ      ; if >2 or negative then ILLEGAL QUANTITY
2004 7340 C005  18        MOV R5,R0
2005 7342 0AD0  42        SLA R0,13     ; voice control in bits 14:13
2006 7344 0260  22        ORI R0,>8000  ; command bit 15 set
     7346 8000     
2007 7348 C040  18        MOV R0,R1     ; keep a copy of the voice register identifier
2008 734A 0261  22        ORI R1,>1000  ; set attenuation register bit
     734C 1000     
2009 734E 028E  22        CI R14,','*>0100
     7350 2C00     
2010 7352 16EF  14        JNE JOYERR    ; if missing comma then SYNTAX ERROR
2011 7354 06A0  32        BL @GETVC     ; get second argument (frequency)
     7356 75CE     
2012 7358 0285  22        CI R5,110
     735A 006E     
2013 735C 1122  14        JLT SNDIQ     ; if <110 then ILLEGAL QUANTITY
2014 735E 0208  20        LI R8,1
     7360 0001     
2015 7362 0209  20        LI R9,>B4F5   ; frequency base is 111861 Hz or >0001_B4F5
     7364 B4F5     
2016 7366 3E05 128        DIV R5,R8     ; divide frequency base by requested frequency to get frequency divider in R8
2017               * move low 4 bits to R0[11:8]
2018 7368 C088  18        MOV R8,R2     ; make a copy that can be destroyed
2019 736A 06C2  14        SWPB R2       ; switch bits so low 4 are now in 11:8
2020 736C 0242  22        ANDI R2,>0F00  ; mask off all other bits
     736E 0F00     
2021 7370 F002  18        SOCB R2,R0    ; OR the 4 bits into R0
2022               * move bits 9:4 to R0[7:0]
2023 7372 0948  24        SRL R8,4      ; move to low 6 bits
2024 7374 E008  18        SOC R8,R0     ; OR the 8 bits into R0
2025 7376 028E  22        CI R14,','*>0100
     7378 2C00     
2026 737A 16DB  14        JNE JOYERR    ; if missing comma then SYNTAX ERROR
2027 737C 06A0  32        BL @GETVC     ; get third argument (volume)
     737E 75CE     
2028 7380 0202  20        LI R2,15
     7382 000F     
2029 7384 8085  18        C R5,R2
2030 7386 1B0D  14        JH SNDIQ      ; if >15 or negative then ILLEGAL QUANTITY
2031 7388 6085  18        S R5,R2       ; attenuation = 15 minus volume
2032               *       SLA R2,8      ; move low nybble of low byte to low nybble of high byte
2033 738A 06C2  14        SWPB R2
2034 738C F042  18        SOCB R2,R1    ; OR the 4 bits into R1 high byte
2035               * write 3 bytes to the sound chip bridge address
2036 738E D800  30        MOVB R0,@SOUND  ; write first byte
     7390 8400     
2037 7392 06C0  14        SWPB R0
2038 7394 D800  30        MOVB R0,@SOUND  ; write second byte
     7396 8400     
2039 7398 06C0  14        SWPB R0       ; fixup R0 to original state and add delay before write
2040 739A D801  30        MOVB R1,@SOUND  ; write third byte
     739C 8400     
2041 739E 0460  28        B @NXTSTT
     73A0 6228     
2042 73A2 0460  28 SNDIQ  B @IQERR
     73A4 7514     
2043               * Noise programs voice 4 with frequency divider key and volume
2044 73A6 06A0  32 SNOISE BL @GETVC     ; get first argument (frequency code)
     73A8 75CE     
2045 73AA 0285  22        CI R5,7
     73AC 0007     
2046 73AE 1BF9  14        JH SNDIQ      ; if >7 or negative then ILLEGAL QUANTITY
2047 73B0 C005  18        MOV R5,R0
2048 73B2 06C0  14        SWPB R0       ; put noise selector in high byte
2049 73B4 0260  22        ORI R0,>E000  ; set the noise register address in
     73B6 E000     
2050 73B8 028E  22        CI R14,','*>0100
     73BA 2C00     
2051 73BC 16BA  14        JNE JOYERR    ; if missing comma then SYNTAX ERROR
2052 73BE 06A0  32        BL @GETVC     ; get second argument (volume)
     73C0 75CE     
2053 73C2 0202  20        LI R2,15
     73C4 000F     
2054 73C6 8085  18        C R5,R2
2055 73C8 1BEC  14        JH SNDIQ      ; if >15 or negative then ILLEGAL QUANTITY
2056 73CA 6085  18        S R5,R2       ; attenuation = 15 minus volume
2057 73CC 0262  22        ORI R2,>00F0  ; set the noise attenuation register address in
     73CE 00F0     
2058               *       SOC R0,R2     ; combine (unnecessary but makes reading registers easier)
2059 73D0 D800  30        MOVB R0,@SOUND  ; write first byte
     73D2 8400     
2060               *       SWPB R0
2061               *       MOVB R0,@SOUND  ; write second byte
2062               *       SWPB R0       ; fixup R0 to original state (unnecessary)
2063 73D4 06C2  14        SWPB R2
2064 73D6 D802  30        MOVB R2,@SOUND  ; write second byte
     73D8 8400     
2065 73DA 0460  28        B @NXTSTT
     73DC 6228     
2066               
2067               * All Functions usable in expressions
2068               * 2 ARGS here and below! uses signed comparison with JGT
2069 73DE 04C8  14 FGREAT CLR R8
2070 73E0 8142  18        C R2,R5
2071 73E2 1514  14        JGT FCOMP1  ; uses signed comparison
2072 73E4 1014  14        JMP FCOMP0
2073 73E6 04C8  14 FLESST CLR R8
2074 73E8 8142  18        C R2,R5
2075 73EA 1110  14        JLT FCOMP1  ; uses signed comparison
2076 73EC 1010  14        JMP FCOMP0
2077 73EE 04C8  14 FEQUAL CLR R8
2078 73F0 8142  18        C R2,R5
2079 73F2 130C  14        JEQ FCOMP1
2080 73F4 100C  14        JMP FCOMP0
2081 73F6 04C8  14 FUNEQU CLR R8
2082 73F8 8142  18        C R2,R5
2083 73FA 1608  14        JNE FCOMP1
2084 73FC 1008  14        JMP FCOMP0
2085 73FE 04C8  14 FGREQU CLR R8
2086 7400 8142  18        C R2,R5
2087 7402 1105  14        JLT FCOMP0  ; uses signed comparison with JLT
2088 7404 1003  14        JMP FCOMP1
2089 7406 04C8  14 FLTEQU CLR R8
2090 7408 8142  18        C R2,R5
2091 740A 1501  14        JGT FCOMP0  ; uses signed comparison with JGT
2092 740C 0608  14 FCOMP1 DEC R8
2093 740E 045B  20 FCOMP0 B *R11
2094               * R2+R5->R8
2095 7410 C205  18 FADD   MOV R5,R8
2096 7412 A202  18        A R2,R8
2097 7414 045B  20        B *R11
2098               * R2-R5->R8
2099 7416 C202  18 FSUB   MOV R2,R8
2100 7418 6205  18        S R5,R8
2101 741A 045B  20        B *R11
2102               * R2*R5->R9->R8
2103               * uses R6 as sign bit
2104 741C 04C6  14 FMULT  CLR R6
2105 741E C205  18        MOV R5,R8
2106 7420 1503  14        JGT FMULT1  ; multiplicand positive, check multiplier
2107 7422 130E  14        JEQ FMULTR  ; multiplicand zero, return zero
2108 7424 0508  14        NEG R8      ; make it positive
2109 7426 0586  14        INC R6      ; toggle sign flag
2110 7428 C082  18 FMULT1 MOV R2,R2   ; set flags
2111 742A 1503  14        JGT FMULT2  ; multiplier positive, calculate
2112 742C 1302  14        JEQ FMULT2  ; multiplier zero, calculate
2113 742E 0502  14        NEG R2      ; make it positive
2114 7430 0606  14        DEC R6      ; toggle sign flag
2115 7432 3A02  58 FMULT2 MPY R2,R8   ; calculate
2116 7434 C208  18        MOV R8,R8   ; set flags
2117 7436 1605  14        JNE FMULTE  ; if not zero then overflow
2118 7438 C209  18        MOV R9,R8   ; take answer from lower half
2119               *       JLT FMULTE  ; if negative then overflow??? NO, let user handle
2120 743A C186  18        MOV R6,R6   ; set flags for sign
2121 743C 1301  14        JEQ FMULTR  ; if 0 then no sign change
2122 743E 0508  14        NEG R8      ; flip sign of answer
2123 7440 045B  20 FMULTR B *R11
2124 7442 0460  28 FMULTE B @IQERR
     7444 7514     
2125               * R2/R5->R8rR9
2126               * uses R6 as sign bit
2127 7446 04C6  14 FDIV   CLR R6
2128 7448 04C8  14        CLR R8
2129 744A C242  18        MOV R2,R9
2130 744C 1503  14        JGT FDIV1
2131 744E 1302  14        JEQ FDIV1
2132 7450 0509  14        NEG R9     ; dividend was negative so make positive and toggle sign flag
2133 7452 0586  14        INC R6
2134 7454 C145  18 FDIV1  MOV R5,R5  ; set flags
2135 7456 1503  14        JGT FDIV2
2136 7458 1335  14        JEQ POWIQ  ; divide by zero not allowed
2137 745A 0505  14        NEG R5     ; divisor was negative so make it positive and toggle sign flag
2138 745C 0606  14        DEC R6
2139 745E 3E05 128 FDIV2  DIV R5,R8
2140 7460 C186  18        MOV R6,R6  ; set flags
2141 7462 1301  14        JEQ FDIVR
2142 7464 0508  14        NEG R8     ; odd number of negative signs so we flip the result's sign
2143 7466 045B  20 FDIVR  B *R11
2144               * R2/R5->R8rR9, remainder doesn't care about sign
2145 7468 04C8  14 FMOD   CLR R8
2146 746A C242  18        MOV R2,R9
2147 746C 0749  18        ABS R9
2148 746E 0745  18        ABS R5
2149 7470 1329  14        JEQ POWIQ  ; divide by zero not allowed
2150 7472 3E05 128        DIV R5,R8
2151 7474 C209  18        MOV R9,R8
2152 7476 045B  20        B *R11
2153               * R2^R5->R8 (use R12 for temporary exponent count down)
2154               * if exponent is 0 then return 1
2155               * if exponent is 1 then return base
2156               * if base is 0 then return 0
2157               * if base is +/-1 then return base (after correct for sign)
2158               * if exponent is negative then ?ILLEGAL QUANTITY ERROR
2159               * if exponent is > 14 then ?OVERFLOW ERROR
2160               * if base is > 181 then ?OVERFLOW ERROR
2161               * finally do loop multiplies
2162 7478 04C8  14 FPOWER CLR R8
2163 747A C205  18        MOV R5,R8
2164 747C 1602  14        JNE EXPNE0
2165 747E 0588  14        INC R8
2166 7480 1020  14        JMP POWRET  ; if exponent is 0 then return 1
2167 7482 0608  14 EXPNE0 DEC R8
2168 7484 1602  14        JNE EXPNE1
2169 7486 C202  18        MOV R2,R8
2170 7488 101C  14        JMP POWRET  ; if exponent is 1 then return base
2171 748A C202  18 EXPNE1 MOV R2,R8
2172 748C 131A  14        JEQ POWRET  ; if base is 0 then return 0
2173 748E 0288  22        CI R8,1
     7490 0001     
2174 7492 1317  14        JEQ POWRET  ; if base is 1 then return base
2175 7494 0288  22        CI R8,-1
     7496 FFFF     
2176 7498 1606  14        JNE BASNM1
2177 749A C305  18        MOV R5,R12
2178 749C 024C  22        ANDI R12,1
     749E 0001     
2179 74A0 1610  14        JNE POWRET  ; if base is -1 and odd exponent then return base
2180 74A2 0508  14        NEG R8
2181 74A4 160E  14        JNE POWRET  ; if base is -1 and even exponent then return -base
2182 74A6 C305  18 BASNM1 MOV R5,R12
2183 74A8 110D  14        JLT POWIQ   ; if exponent is negative then ?ILLEGAL QUANTITY ERROR
2184 74AA 0285  22        CI R5,14
     74AC 000E     
2185 74AE 150C  14        JGT POWOF   ; if exponent is > 14 then ?OVERFLOW ERROR
2186 74B0 0282  22        CI R2,181
     74B2 00B5     
2187 74B4 1509  14        JGT POWOF   ; if base is > 181 then ?OVERFLOW ERROR
2188 74B6 060C  14        DEC R12
2189 74B8 1304  14        JEQ POWRET
2190 74BA 3A02  58 POWLP  MPY R2,R8
2191 74BC C209  18        MOV R9,R8
2192 74BE 060C  14        DEC R12
2193 74C0 16FC  14        JNE POWLP
2194 74C2 045B  20 POWRET B *R11
2195 74C4 0460  28 POWIQ  B @IQERR
     74C6 7514     
2196 74C8 0203  20 POWOF  LI R3,OFMSG
     74CA 7582     
2197 74CC 0460  28        B @ERROR
     74CE 751E     
2198               * R2 AND R5->R8
2199 74D0 C202  18 FBWAND MOV R2,R8
2200 74D2 C245  18        MOV R5,R9
2201 74D4 0549  14        INV R9
2202 74D6 4209  18        SZC R9,R8
2203 74D8 045B  20        B *R11
2204               * R2 OR R5->R8
2205 74DA C205  18 FBWOR  MOV R5,R8
2206 74DC E202  18        SOC R2,R8
2207 74DE 045B  20        B *R11
2208               * R2 XOR R5->R8
2209 74E0 C205  18 FBWXOR MOV R5,R8
2210 74E2 2A02  18        XOR R2,R8
2211 74E4 045B  20        B *R11
2212               * R2 <<|>> R5->R8
2213               * FSHIFT if R5 lower (than 0) then FBWSHR
2214               * if R5 is 0 then return R2
2215               * FBWSHL if R5 higher than 15 then return 0
2216               * return SLA
2217               * FBWSHR if R5 lower than -15 then return 0
2218               * NEG R5
2219               * return SRL
2220 74E6 C005  18 FSHIFT MOV R5,R0
2221 74E8 1107  14        JLT FBWSHR
2222 74EA 130D  14        JEQ FSHIF1
2223               * R2 SHL R5->R8
2224 74EC 0285  22 FBWSHL CI R5,15
     74EE 000F     
2225 74F0 1B0C  14        JH FSHIF0
2226 74F2 C202  18        MOV R2,R8
2227 74F4 0A08  56        SLA R8,0
2228 74F6 045B  20        B *R11
2229               * R2 SHR R5->R8
2230 74F8 0285  22 FBWSHR CI R5,-15
     74FA FFF1     
2231 74FC 1A06  14        JL FSHIF0
2232 74FE C202  18        MOV R2,R8
2233 7500 0500  14        NEG R0
2234 7502 0908  56        SRL R8,0
2235 7504 045B  20        B *R11
2236 7506 C202  18 FSHIF1 MOV R2,R8
2237 7508 045B  20        B *R11
2238 750A 04C8  14 FSHIF0 CLR R8
2239 750C 045B  20        B *R11
2240               
2241               * All Functions usable in PRINT
2242               * generate a string based on value/variable and use its address
2243               * FCHRST MOVB R2,@CHRSTR
2244               *       B *R11
2245               * identify next value as string address
2246               * FSTRST
2247               * end EXECUTION --------------------------------------
2248               
2249               * start ERRORS ---------------------------------------
2250 750E 0203  20 SYNERR LI R3,SYNMSG
     7510 7560     
2251 7512 1005  14        JMP ERROR
2252 7514 0203  20 IQERR  LI R3,IQMSG
     7516 7567     
2253 7518 1002  14        JMP ERROR
2254 751A 0203  20 OOMERR LI R3,OOMMSG
     751C 75C0     
2255               *       JMP ERROR    ; not needed, just fall through
2256               * Error message - output return, '?', error pointed to by R3, 'ERROR IN LINE ', line number
2257               * Then stop running
2258 751E 0201  20 ERROR  LI R1,CENTER  ; return
     7520 0D00     
2259 7522 06A0  32        BL @CHROUT
     7524 7720     
2260 7526 0201  20        LI R1,'?'*>0100
     7528 3F00     
2261 752A 06A0  32        BL @CHROUT
     752C 7720     
2262 752E 06A0  32        BL @PRTNEG    ; error pointed to by R3 that ends in an inverted character
     7530 792E     
2263 7532 0203  20        LI R3,ERRMSG
     7534 7552     
2264 7536 06A0  32        BL @PRTNEG    ; 'ERROR'
     7538 792E     
2265 753A C120  30        MOV @CURLIN,R4  ; pointer to entry in line table
     753C 8320     
2266 753E C154  26        MOV *R4,R5    ; actual line number from table
2267 7540 1106  14        JLT ERREND    ; if negative line then skip printing line number
2268 7542 0203  20        LI R3,ERRLIN
     7544 7557     
2269 7546 06A0  32        BL @PRTNEG    ; ' IN LINE '
     7548 792E     
2270 754A 06A0  32        BL @PRTNUM    ; line number
     754C 7920     
2271 754E 0460  28 ERREND B @SEND       ; do END statement to stop execution immediately
     7550 67EE     
2272               
2273 7552 4552     ERRMSG TEXT 'ERRO'
     7554 524F     
2274 7556 AD              BYTE >FF-'R'
2275 7557   20     ERRLIN TEXT ' IN LINE'
     7558 494E     
     755A 204C     
     755C 494E     
     755E 45       
2276 755F   DF            BYTE >DF
2277               * Must use hardcoded byte since Win994a does not parse expressions containing a space character
2278               * even if it is inside single quotes. Can use >FF - >20 or just hardcode the calculation result.
2279               *       BYTE >FF-' '
2280 7560 5359     SYNMSG TEXT 'SYNTAX'
     7562 4E54     
     7564 4158     
2281 7566 DF              BYTE >DF
2282 7567   49     IQMSG  TEXT 'ILLEGAL QUANITITY'
     7568 4C4C     
     756A 4547     
     756C 414C     
     756E 2051     
     7570 5541     
     7572 4E49     
     7574 5449     
     7576 5459     
2283 7578 DF              BYTE >DF
2284 7579   46     FIOMSG TEXT 'FILE I/O'
     757A 494C     
     757C 4520     
     757E 492F     
     7580 4F       
2285 7581   DF            BYTE >DF
2286 7582 4F56     OFMSG  TEXT 'OVERFLOW'
     7584 4552     
     7586 464C     
     7588 4F57     
2287 758A DF              BYTE >DF
2288 758B   4C     USMSG  TEXT 'LINE NOT FOUND'  ; was UNDEFINED STATEMENT
     758C 494E     
     758E 4520     
     7590 4E4F     
     7592 5420     
     7594 464F     
     7596 554E     
     7598 44       
2289 7599   DF            BYTE >DF
2290 759A 5245     RWGMSG TEXT 'RETURN WITHOUT GOSUB'
     759C 5455     
     759E 524E     
     75A0 2057     
     75A2 4954     
     75A4 484F     
     75A6 5554     
     75A8 2047     
     75AA 4F53     
     75AC 5542     
2291 75AE DF              BYTE >DF
2292 75AF   4E     NWFMSG TEXT 'NEXT WITHOUT FOR'
     75B0 4558     
     75B2 5420     
     75B4 5749     
     75B6 5448     
     75B8 4F55     
     75BA 5420     
     75BC 464F     
     75BE 52       
2293 75BF   DF            BYTE >DF
2294 75C0 4F55     OOMMSG TEXT 'OUT OF MEMORY'
     75C2 5420     
     75C4 4F46     
     75C6 204D     
     75C8 454D     
     75CA 4F52     
     75CC 59       
2295 75CD   DF            BYTE >DF
2296                      EVEN
2297               * end ERRORS -----------------------------------------
2298               
2299               * GetVariableOrConstant - check next token, if var or const then populate R3-5, else Syntax Error
2300               * updates R10(TXTPTR) and R14 as if CHRGET was called at the end
2301 75CE C30B  18 GETVC  MOV R11,R12  ; save return address so CHRGET can be used
2302 75D0 04C3  14        CLR R3
2303 75D2 06A0  28        BL @CHRGET   ; skip spaces
     75D4 832C     
2304 75D6 028E  22        CI R14,TCONST*>0100
     75D8 B000     
2305 75DA 160C  14        JNE GETVC0
2306 75DC 04C4  14        CLR R4       ; must first clear before doing byte operations or low byte contains garbage
2307 75DE 04C5  14        CLR R5
2308 75E0 058A  14        INC R10      ; move past TCONST token
2309 75E2 D17A  28        MOVB *R10+,R5  ; must read one byte at a time since word read will ignore LSB of address
2310 75E4 D13A  28        MOVB *R10+,R4
2311 75E6 06C4  14        SWPB R4
2312 75E8 E144  18        SOC R4,R5    ; R5 contains value
2313 75EA 04C4  14        CLR R4       ; R4 contains 0 (no address)
2314 75EC C0C4  18        MOV R4,R3    ;
2315 75EE 0603  14        DEC R3       ; R3 contains -1 (constant)
2316 75F0 060A  14        DEC R10      ; backup so CHRGET finds next character
2317 75F2 1022  14        JMP GETVC2
2318 75F4 028E  22 GETVC0 CI R14,TADDR*>0100
     75F6 AF00     
2319 75F8 1610  14        JNE GETVC1
2320 75FA 028D  22        CI R13,STACK+STKSIZ-2
     75FC 20FE     
2321 75FE 1B8D  14        JH OOMERR    ; if stack pointer is less than (1 register) bytes from top then OUT OF MEMORY
2322 7600 CF4C  34        MOV R12,*R13+  ; save original return address
2323 7602 06A0  32        BL @GETVC    ; recurse to get value
     7604 75CE     
2324 7606 0203  20        LI R3,'@'    ; register/constant identifier
     7608 0040     
2325 760A C105  18        MOV R5,R4    ; old value becomes new address
2326 760C 0B15  18        SRC R5,1     ; test if even/odd
2327 760E 1882  14        JOC IQERR   ; if odd then illegal quantity error
2328 7610 C154  26        MOV *R4,R5   ; R5 contains ultimate value
2329 7612 064D  14        DECT R13     ; back up to recover R12
2330 7614 C31D  26        MOV *R13,R12
2331 7616 060A  14        DEC R10      ; backup so CHRGET finds next character
2332 7618 100F  14        JMP GETVC2
2333 761A 028E  22 GETVC1 CI R14,'Z'*>0100
     761C 5A00     
2334 761E 1B0F  14        JH GETVCE
2335 7620 028E  22        CI R14,'A'*>0100
     7622 4100     
2336 7624 1A0C  14        JL GETVCE
2337 7626 C0CE  18        MOV R14,R3   ; don't modify R14
2338 7628 0223  22        AI R3,-'A'*>0100
     762A BF00     
2339 762C 06C3  14        SWPB R3      ; correct for using high byte
2340 762E C103  18        MOV R3,R4
2341 7630 A104  18        A R4,R4      ; double variable number since each uses 2 bytes
2342 7632 0224  22        AI R4,VARS
     7634 2500     
2343 7636 C154  26        MOV *R4,R5   ; R5 contains value
2344 7638 06A0  28 GETVC2 BL @CHRGET   ; skip spaces
     763A 832C     
2345 763C 045C  20        B *R12
2346 763E 0460  28 GETVCE B @SYNERR
     7640 750E     
2347               * FindLineNumber - search for line number in R2
2348               * return line table pointer in R9 and code pointer in R15
2349 7642 0209  20 FINDLN LI R9,LINBOT
     7644 25C0     
2350 7646 C3F9  30 FINDL1 MOV *R9+,R15
2351 7648 1104  14        JLT FINDL2   ; if line table entry is negative then no more lines to search
2352 764A 83C2  18        C R2,R15
2353 764C 1202  14        JLE FINDL2   ; if desired line is <= line table entry then we either found the line number or went too far
2354               *       INCT R9      ; skip to next entry in table
2355 764E 8E79  42        C *R9+,*R9+  ; shorthand to add 4 to R9, skip to next entry in table (b/c we already did *R9+, only need 4 more bytes)
2356 7650 10FA  14        JMP FINDL1
2357 7652 C3D9  26 FINDL2 MOV *R9,R15  ; preload the text pointer before changing R9
2358 7654 0649  14        DECT R9      ; backup from using autoincrement the last time
2359 7656 045B  20        B *R11
2360               * CheckEndOfLineOrStatement: 0/EQ=not end, 1/NE=end
2361 7658 D38E  18 CHKEND MOVB R14,R14  ; set flags
2362 765A 1306  14        JEQ CHKEN1
2363 765C 028E  22        CI R14,':'*>0100
     765E 3A00     
2364 7660 1303  14        JEQ CHKEN1
2365 7662 024F  22        ANDI R15,0   ; return 0/EQUAL status if not end marker (CLR does not affect flags)
     7664 0000     
2366 7666 045B  20        B *R11
2367 7668 026F  22 CHKEN1 ORI R15,>FFFF  ; return -1/NOT-EQUAL status if end marker (SETO does not affect flags)
     766A FFFF     
2368 766C 045B  20        B *R11
2369               
2370               * Get a line in the line input buffer
2371               * string in LINBUF is not invert-terminated but has a length returned in R9
2372               * (INPUT will do its own inverting)
2373               * R0-2=used by subroutines, R3-5=avoid for SINPUT, R6=starting CURSOR, R7=pointer to string, R8=key, R9=length, R15=keyboard status
2374 766E C30B  18 LINGET MOV R11,R12    ; backup return address so BL can be used
2375 7670 04C9  14        CLR R9         ; count of characters entered is 0
2376 7672 C1A0  30        MOV @CURSOR,R6  ; save starting CURSOR position
     7674 8326     
2377 7676 0207  20        LI R7,LINBUF   ; line input buffer
     7678 2100     
2378 767A 0201  20        LI R1,CCURSR   ; cursor character
     767C 7F00     
2379 767E 06A0  32        BL @CHROUT
     7680 7720     
2380 7682 0620  26        DEC @CURSOR    ; backup to cursor character position
     7684 8326     
2381 7686 04C8  14 LINKEY CLR R8
2382 7688 04E0  26        CLR @KEYDEV    ; scan from full keyboard
     768A 8374     
2383               *       LIMI 0         ; INTERRUPT: interrupts cannot be enabled while scanning keys
2384 768C 0420  50        BLWP @KSCAN
     768E 7AEA     
2385               *       LIMI 2         ; INTERRUPT
2386 7690 D220  30        MOVB @KEYKEY,R8
     7692 8375     
2387 7694 0288  22        CI R8,>FF00
     7696 FF00     
2388 7698 13F6  14        JEQ LINKEY     ; if no key try again
2389 769A C3E0  30        MOV @GPLSTS,R15  ; retrieve status register
     769C 837C     
2390 769E 024F  22        ANDI R15,>2000  ; new key condition bit mask
     76A0 2000     
2391 76A2 13F1  14        JEQ LINKEY     ; if not new key try again
2392 76A4 0288  22        CI R8,CCLEAR
     76A6 0200     
2393 76A8 13EE  14        JEQ LINKEY     ; if CLEAR try again
2394 76AA 0288  22        CI R8,CLEFT
     76AC 0800     
2395 76AE 1610  14        JNE LINKE1
2396               * left arrow/delete
2397 76B0 C249  18        MOV R9,R9      ; set flags
2398 76B2 13E9  14        JEQ LINKEY     ; if no characters entered then ignore
2399 76B4 0609  14        DEC R9         ; decrease character count
2400 76B6 0201  20        LI R1,CSPACE
     76B8 2000     
2401 76BA 06A0  32        BL @CHROUT     ; remove cursor character
     76BC 7720     
2402 76BE 0660  26        DECT @CURSOR   ; backup to character before the erased cursor
     76C0 8326     
2403 76C2 0201  20        LI R1,CCURSR
     76C4 7F00     
2404 76C6 06A0  32        BL @CHROUT     ; display new cursor location
     76C8 7720     
2405 76CA 0620  26        DEC @CURSOR    ; backup to cursor character position
     76CC 8326     
2406 76CE 10DB  14        JMP LINKEY
2407 76D0 0288  22 LINKE1 CI R8,CENTER
     76D2 0D00     
2408 76D4 160D  14        JNE LINKE2
2409               * enter
2410 76D6 0201  20 LINENT LI R1,CSPACE
     76D8 2000     
2411 76DA 06A0  32        BL @CHROUT     ; remove cursor character
     76DC 7720     
2412 76DE 0620  26        DEC @CURSOR    ; backup to the erased cursor for next output
     76E0 8326     
2413 76E2 C089  18        MOV R9,R2      ; length of entered text (DANGER: 0 characters possible)
2414 76E4 1304  14        JEQ LINRET     ; if length 0 skip copying string
2415 76E6 C006  18        MOV R6,R0
2416 76E8 C047  18        MOV R7,R1
2417 76EA 06A0  32        BL @VMBR       ; copy string from VDP RAM to CPU RAM
     76EC 7B24     
2418 76EE 045C  20 LINRET B *R12         ; return without printing enter (allow caller to do this if desired)
2419               * any other key
2420 76F0 0288  22 LINKE2 CI R8,CSPACE
     76F2 2000     
2421 76F4 1402  14        JHE LINKE3
2422 76F6 0208  20        LI R8,CSPACE   ; if unassigned control character treat as space
     76F8 2000     
2423 76FA 0289  22 LINKE3 CI R9,LINSIZ
     76FC 0100     
2424 76FE 13EB  14        JEQ LINENT     ; if buffer full then treat any character as enter
2425 7700 0589  14        INC R9         ; increase character count
2426 7702 C048  18        MOV R8,R1
2427 7704 06A0  32        BL @CHROUT     ; display character for key press
     7706 7720     
2428 7708 0201  20        LI R1,CCURSR
     770A 7F00     
2429 770C 06A0  32        BL @CHROUT     ; display cursor in new position
     770E 7720     
2430 7710 0620  26        DEC @CURSOR    ; backup to cursor character position
     7712 8326     
2431 7714 D060  34        MOVB @SCROLL,R1
     7716 2534     
2432 7718 13B6  14        JEQ LINKEY     ; if no scroll then get another key
2433 771A 0226  22        AI R6,-32      ; move start position back 1 row
     771C FFE0     
2434 771E 10B3  14        JMP LINKEY     ; after adjusting start position for scroll get another key
2435               
2436               * Output character in R1hi and advance cursor, if past end of screen then scroll line
2437               * Special treatment of backspace[8] (left arrow), tab[9] (comma in PRINT, right arrow), and enter[13]
2438               * Changes R0,R1,R2
2439 7720 C80B  30 CHROUT MOV R11,@TEMPF1  ; preserve return address
     7722 8338     
2440 7724 04C0  14        CLR R0
2441 7726 D800  38        MOVB R0,@SCROLL  ; indicate no scroll as default
     7728 2534     
2442 772A C020  30        MOV @CURSOR,R0
     772C 8326     
2443 772E 0202  20        LI R2,>0800
     7730 0800     
2444 7732 9042  18        CB R2,R1
2445 7734 1608  14        JNE CHROU2
2446 7736 C000  18        MOV R0,R0      ; backspace
2447 7738 1346  14        JEQ CHROUR     ; do nothing if at top left of screen
2448 773A 0600  14        DEC R0         ; backup one character
2449 773C 0201  20        LI R1,CSPACE   ; space over cursor position
     773E 2000     
2450 7740 06A0  32        BL @VSBW
     7742 7B0A     
2451 7744 1040  14        JMP CHROUR
2452 7746 0202  20 CHROU2 LI R2,CRIGHT
     7748 0900     
2453 774A 9042  18        CB R2,R1
2454 774C 1603  14        JNE CHROU3
2455 774E 0202  20        LI R2,>0008    ; tab: horizontal scroll to next position divisible by 8
     7750 0008     
2456 7752 1006  14        JMP HSCRLL
2457 7754 0202  20 CHROU3 LI R2,CENTER
     7756 0D00     
2458 7758 9042  18        CB R2,R1
2459 775A 1613  14        JNE CHROU4
2460 775C 0202  20        LI R2,>0020    ; enter: horizontal scroll to next position divisible by 32
     775E 0020     
2461 7760 C808  30 HSCRLL MOV R8,@TEMPF2  ; temporarily stash R8/R9 so they can be used for division
     7762 833A     
2462 7764 C809  30        MOV R9,@TEMPF3
     7766 833C     
2463 7768 C240  18        MOV R0,R9      ; move right by R2 positions
2464 776A 04C8  14        CLR R8
2465 776C 3E02 128        DIV R2,R8
2466 776E 0588  14        INC R8
2467 7770 C008  18        MOV R8,R0
2468 7772 C202  18        MOV R2,R8
2469 7774 3A00  58        MPY R0,R8
2470 7776 C009  18        MOV R9,R0
2471 7778 C260  30        MOV @TEMPF3,R9  ; recover R8/R9
     777A 833C     
2472 777C C220  30        MOV @TEMPF2,R8
     777E 833A     
2473 7780 1003  14        JMP VSCRLL
2474 7782 06A0  32 CHROU4 BL @VSBW       ; any other character gets displayed
     7784 7B0A     
2475 7786 0580  14        INC R0
2476 7788 0280  22 VSCRLL CI R0,>0300    ; if off screen then scroll screen up one line
     778A 0300     
2477 778C 1A1C  14        JL CHROUR
2478 778E 0700  14        SETO R0
2479 7790 D800  38        MOVB R0,@SCROLL  ; mark that screen scrolled
     7792 2534     
2480 7794 0200  20        LI R0,>0020    ; VDP start on line 1
     7796 0020     
2481 7798 0201  20        LI R1,VDPBUF   ; RAM buffer
     779A 2200     
2482 779C 0202  20        LI R2,VDPSIZ   ; amount to transfer
     779E 02E0     
2483 77A0 06A0  32        BL @VMBR       ; block copy VDP to RAM (modifies R1,R2 so need to re-init)
     77A2 7B24     
2484 77A4 04C0  14        CLR R0         ; VDP start on line 0
2485 77A6 0201  20        LI R1,VDPBUF   ; RAM buffer
     77A8 2200     
2486 77AA 0202  20        LI R2,VDPSIZ   ; amount to transfer
     77AC 02E0     
2487 77AE 06A0  32        BL @VMBW       ; block copy RAM to VDP
     77B0 7B3C     
2488 77B2 0200  20        LI R0,VDPSIZ   ; VDP destination
     77B4 02E0     
2489 77B6 0201  20        LI R1,CSPACE   ; space character
     77B8 2000     
2490 77BA 0202  20        LI R2,>0020    ; number of characters
     77BC 0020     
2491 77BE 06A0  32        BL @VMBS       ; block write spaces
     77C0 7B5A     
2492 77C2 0200  20        LI R0,VDPSIZ   ; move cursor to first byte of last line
     77C4 02E0     
2493 77C6 C800  30 CHROUR MOV R0,@CURSOR
     77C8 8326     
2494 77CA C2E0  30        MOV @TEMPF1,R11  ; restore return address
     77CC 8338     
2495 77CE 045B  20        B *R11
2496               
2497               * CLOSE closes the open file in VDPPAB
2498 77D0 C30B  18 CLOSE  MOV R11,R12   ; stash return address so VSBW can be used
2499 77D2 0200  20        LI R0,VDPPAB
     77D4 373E     
2500 77D6 0201  20        LI R1,DSRCLS  ; set opcode=CLOSE
     77D8 0100     
2501 77DA 06A0  32        BL @VSBW      ; update VDP PAB operation to CLOSE
     77DC 7B0A     
2502 77DE 0420  50        BLWP @DSRLNK  ; invoke device driver to close file (don't care about checking for errors on close)
     77E0 7AEE     
2503 77E2 04C0  14        CLR R0
2504 77E4 D800  38        MOVB R0,@OPENED  ; flag that a file is NOT open
     77E6 2535     
2505 77E8 045C  20        B *R12
2506               
2507               * DSKIN reads a byte from the file buffer, if buffer empty reads next record before returning byte
2508               * if PAB error on record read then return EOF indicator to caller
2509               * caller must do first record read and set buffer pointer to after header
2510               * R0,1,2 used by VMBR, R3=file length (reserved), R4=buffer pointer, R5=buffer remaining, R6=read length
2511               * R7=CPU address (input), R8=length (input), R9=EOF (output)
2512 77EA C30B  18 DSKIN  MOV R11,R12    ; protect return address from calls to VMBR/VSBR
2513 77EC C188  18 DSKIN1 MOV R8,R6      ; write_len = length
2514 77EE 8148  18        C R8,R5
2515 77F0 1202  14        JLE DSKIN2
2516 77F2 C185  18        MOV R5,R6      ; if length > buff_left then read_len = buff_left
2517 77F4 0709  14        SETO R9        ; return end of file reached
2518 77F6 C004  18 DSKIN2 MOV R4,R0      ; VDP address = buff_ptr
2519 77F8 C047  18        MOV R7,R1      ; CPU address = address
2520 77FA C086  18        MOV R6,R2      ; copy length = read_len
2521 77FC 06A0  32        BL @VMBR       ; move from VDP to CPU
     77FE 7B24     
2522 7800 A1C6  18        A R6,R7        ; address += read_len
2523 7802 6206  18        S R6,R8        ; length -= read_len
2524 7804 A106  18        A R6,R4        ; buff_ptr += read_len
2525 7806 6146  18        S R6,R5        ; buff_left -= read_len
2526 7808 160F  14        JNE DSKIN3     ; if buff_left <> 0 skip
2527 780A 04E0  26        CLR @GPLSTS    ; always clear status before calling DSRLNK
     780C 837C     
2528 780E 0420  50        BLWP @DSRLNK   ; read next record
     7810 7AEE     
2529 7812 0200  20        LI R0,VDPPAB+1
     7814 373F     
2530 7816 06A0  32        BL @VSBR       ; read device driver flags after operation
     7818 7AF6     
2531 781A 0241  22        ANDI R1,>7000  ; only look at status bits
     781C 7000     
2532 781E 1607  14        JNE DSKERR     ; if non-zero then report FILE IO error (other error)
2533 7820 0204  20        LI R4,VDPPAB+PABSIZ  ; reset to start of file buffer
     7822 3758     
2534 7824 0205  20        LI R5,128      ; reset remaining buffer to size of records
     7826 0080     
2535 7828 C208  18 DSKIN3 MOV R8,R8      ; set flags
2536 782A 16E0  14        JNE DSKIN1     ; if length <> 0 then read remainder from next record
2537 782C 045C  20        B *R12
2538               
2539               * close any open file, then report FILE IO error
2540 782E 0200  20 DSKERR LI R0,VDPPAB
     7830 373E     
2541 7832 0201  20        LI R1,DSRCLS
     7834 0100     
2542 7836 06A0  32        BL @VSBW
     7838 7B0A     
2543 783A 0420  50        BLWP @DSRLNK  ; close open file (don't care about checking for errors on close)
     783C 7AEE     
2544 783E 0203  20        LI R3,FIOMSG
     7840 7579     
2545 7842 0460  28        B @ERROR
     7844 751E     
2546               
2547               * DSKOUT writes a data chunk to the file buffer
2548               * caller must set PAB for writes and prepare file length/buffer offset/buffer left before first call
2549               * caller must write final record, update the file length in record 0, and close file after last call
2550               * R0,1,2 used by VMBW, R3=file length, R4=buffer pointer, R5=buffer remaining, R6=write length
2551               * R7=CPU address (input), R8=length (input)
2552 7846 C30B  18 DSKOUT MOV R11,R12    ; protect return address from calls to VMBW/VSBR
2553               *       A R8,R3        ; file_len += length DO NOT TRACK file_len, LEAVE TO CALLER
2554 7848 C188  18 DSKO1  MOV R8,R6      ; write_len = length
2555 784A 8148  18        C R8,R5
2556 784C 1201  14        JLE DSKO2
2557 784E C185  18        MOV R5,R6      ; if length > buff_left then write_len = buff_left
2558 7850 C004  18 DSKO2  MOV R4,R0      ; VDP address = buff_ptr
2559 7852 C047  18        MOV R7,R1      ; CPU address = address
2560 7854 C086  18        MOV R6,R2      ; copy length = write_len
2561 7856 06A0  32        BL @VMBW       ; move from CPU to VDP
     7858 7B3C     
2562 785A A1C6  18        A R6,R7        ; address += write_len
2563 785C 6206  18        S R6,R8        ; length -= write_len
2564 785E A106  18        A R6,R4        ; buff_ptr += write_len
2565 7860 6146  18        S R6,R5        ; buff_left -= write_len
2566 7862 160F  14        JNE DSKO3      ; if buff_left <> 0 skip
2567 7864 04E0  26        CLR @GPLSTS   ; always clear status before calling DSRLNK
     7866 837C     
2568 7868 0420  50        BLWP @DSRLNK   ; write full record
     786A 7AEE     
2569 786C 0200  20        LI R0,VDPPAB+1
     786E 373F     
2570 7870 06A0  32        BL @VSBR       ; read device driver flags after operation
     7872 7AF6     
2571 7874 0241  22        ANDI R1,>7000  ; only look at status bits
     7876 7000     
2572 7878 16DA  14        JNE DSKERR     ; if non-zero then report FILE IO error (other error)
2573 787A 0204  20        LI R4,VDPPAB+PABSIZ  ; reset to start of file buffer
     787C 3758     
2574 787E 0205  20        LI R5,128      ; reset remaining buffer to size of records
     7880 0080     
2575 7882 C208  18 DSKO3  MOV R8,R8      ; set flags
2576 7884 16E1  14        JNE DSKO1      ; if length <> 0 then copy remainder into new record
2577 7886 045C  20        B *R12
2578               
2579               * ATOI convert string to integer (used in VAL and tokenization)
2580               * R5 contains pointer to string (caller responsible for advancing TXTPTR if applicable)
2581               * R0=10, R1=character, R2=char copy, R3='9', R4='0', R6=negative, R8=value, R9=clobbered by multiply
2582               * R7 must be preserved for LET destination address
2583 7888 04C8  14 ATOI   CLR R8
2584 788A 04C1  14        CLR R1
2585 788C 04C6  14        CLR R6
2586 788E 0200  20        LI R0,10
     7890 000A     
2587 7892 0204  20        LI R4,'0'*>0100
     7894 3000     
2588 7896 0203  20        LI R3,'9'*>0100
     7898 3900     
2589 789A D075  28        MOVB *R5+,R1
2590 789C 0281  22        CI R1,'-'*>0100
     789E 2D00     
2591 78A0 1602  14        JNE ATOI1    ; if not minus treat as digit
2592 78A2 0546  14        INV R6       ; use R6 as negative flag (when negative)
2593 78A4 D075  28        MOVB *R5+,R1
2594 78A6 C081  18 ATOI1  MOV R1,R2
2595 78A8 1113  14        JLT ATOI5    ; two jumps for last character is faster than two not taken jumps for the rest
2596 78AA 9101  18 ATOI4  CB R1,R4
2597 78AC 1A0C  14        JL ATOI2     ; character <'0' then end of number
2598 78AE 90C1  18        CB R1,R3
2599 78B0 1B0A  14        JH ATOI2     ; character >'9' then end of number
2600 78B2 7044  18        SB R4,R1     ; character = character - '0'
2601 78B4 06C1  14        SWPB R1      ; digit is character byte
2602 78B6 3A00  58        MPY R0,R8    ; value = value  ; 10
2603 78B8 C209  18        MOV R9,R8
2604 78BA A201  18        A R1,R8
2605 78BC 06C1  14        SWPB R1      ; make sure low byte of R7 is clear for future iterations
2606 78BE D082  18        MOVB R2,R2
2607 78C0 1102  14        JLT ATOI2    ; if character was inverted then end of number
2608 78C2 D075  28        MOVB *R5+,R1  ; fetch next digit
2609 78C4 10F0  14        JMP ATOI1
2610 78C6 D186  18 ATOI2  MOVB R6,R6
2611 78C8 1301  14        JEQ ATOI3
2612 78CA 0508  14        NEG R8       ; negate result
2613 78CC 0605  14 ATOI3  DEC R5       ; move back to last character of number (or initial character if no number)
2614 78CE 045B  20        B *R11
2615 78D0 0541  14 ATOI5  INV R1       ; invert last character
2616 78D2 0241  22        ANDI R1,>FF00  ; clear the low byte FF to 00
     78D4 FF00     
2617 78D6 10E9  14        JMP ATOI4
2618               * ITOA convert integer to temporary string (used in PRINT)
2619               * R5 contains value
2620               * R0=character 0, R1=10, R2/R3=don't care/place value, R4/R5=division result, R6=leading 0 flag, R7=pointer to temporary string area (LINBUF)
2621 78D8 04C6  14 ITOA   CLR R6        ; suppress leading 0s
2622 78DA 0200  20        LI R0,'0'*>0100  ; default output
     78DC 3000     
2623 78DE 0201  20        LI R1,10      ; scale value for digits
     78E0 000A     
2624 78E2 0207  20        LI R7,LINBUF  ; output location
     78E4 2100     
2625 78E6 0203  20        LI R3,10000   ; current digit place value
     78E8 2710     
2626 78EA C145  18        MOV R5,R5     ; set flags
2627 78EC 1602  14        JNE ITOA1
2628 78EE D100  18        MOVB R0,R4    ; set up to write a zero digit
2629 78F0 1012  14        JMP ITOA4     ; finish up
2630 78F2 1504  14 ITOA1  JGT ITOA2
2631 78F4 0204  20        LI R4,'-'*>0100
     78F6 2D00     
2632 78F8 DDC4  32        MOVB R4,*R7+  ; store minus sign
2633 78FA 0505  14        NEG R5        ; negate value and continue
2634 78FC 04C4  14 ITOA2  CLR R4        ; set top 16 bits of 32 bit dividend to 0
2635 78FE 3D03 128        DIV R3,R4     ; R4=digit, R5=remainder (new value next iteration)
2636 7900 2984  18        XOR R4,R6     ; set EQ flag and adjust leading 0 flag at the same time
2637 7902 1304  14        JEQ ITOA3     ; if 0 skip output
2638 7904 06C4  14        SWPB R4
2639 7906 B100  18        AB R0,R4      ; adjust for ASCII
2640 7908 DDC4  32        MOVB R4,*R7+  ; store digit character
2641 790A 0706  14        SETO R6       ; make sure zero flag can't match any future digit value
2642 790C 04C2  14 ITOA3  CLR R2        ; set top 16 bits of 32 bit dividend to 0
2643 790E 3C81 128        DIV R1,R2     ; position value / 10
2644 7910 C0C2  18        MOV R2,R3     ; result is new place value
2645 7912 16F4  14        JNE ITOA2     ; last iteration is 1/10 which sets result in R2 to 0
2646 7914 0607  14        DEC R7        ; backup to last character
2647 7916 0544  14 ITOA4  INV R4        ; invert last character written
2648 7918 D5C4  30        MOVB R4,*R7   ; write it again
2649 791A 0207  20        LI R7,LINBUF  ; reset to start of temp string space
     791C 2100     
2650 791E 045B  20        B *R11
2651               
2652               * PRTNUM print number by calling ITOA (number in R5) then PRTNEG (pointer in R3)
2653 7920 C3CB  18 PRTNUM MOV R11,R15   ; backup return address since ITOA/PRTNEG will use R11 and R12
2654 7922 06A0  32        BL @ITOA
     7924 78D8     
2655 7926 C0C7  18        MOV R7,R3
2656 7928 06A0  32        BL @PRTNEG
     792A 792E     
2657 792C 045F  20        B *R15
2658               
2659               * print string until a negative character, invert and print it
2660               * R3=pointer; changes R1=last character
2661 792E C30B  18 PRTNEG MOV R11,R12
2662 7930 04C1  14        CLR R1
2663 7932 D053  26        MOVB *R3,R1
2664 7934 0281  22        CI R1,>FF00
     7936 FF00     
2665 7938 1309  14        JEQ PRTNER    ; if first character is inverted null then skip printing
2666 793A 04C4  14        CLR R4
2667 793C D073  28 PRTNE1 MOVB *R3+,R1
2668 793E 1103  14        JLT PRTNE2
2669 7940 06A0  32        BL @CHROUT
     7942 7720     
2670 7944 10FB  14        JMP PRTNE1
2671 7946 0541  14 PRTNE2 INV R1
2672 7948 06A0  32        BL @CHROUT
     794A 7720     
2673 794C 045C  20 PRTNER B *R12
2674               
2675               * start INIT -----------------------------------------
2676               * Routines to be copied to CPU scratchpad memory for speed
2677               * requires 14 bytes
2678 794E 058A  14 INITAT INC R10         ; advance TXTPTR
2679 7950 D39A  26        MOVB *R10,R14   ; get byte in high part of R14
2680 7952 980E  34        CB R14,@SPACE
     7954 7AE7     
2681 7956 13FB  14        JEQ INITAT      ; skip spaces
2682 7958 045B  20        B *R11          ; return
2683               
2684               * Init memory
2685 795A 02E0  18 INIT   LWPI BASWP      ; start using BASIC workspace pointer
     795C 8300     
2686 795E 020D  20        LI R13,STACK    ; STKPTR = &STACK, top of stack
     7960 2000     
2687 7962 C00D  18        MOV R13,R0
2688 7964 0201  20        LI R1,LINBOT-STACK  ; total bytes to clear
     7966 05C0     
2689 7968 04C2  14        CLR R2          ; clear to 0
2690 796A CC02  34 INIT1  MOV R2,*R0+     ; clear a word at a time
2691 796C 0641  14        DECT R1         ; count down two bytes (one word)
2692 796E 16FD  14        JNE INIT1       ; Clear all memory from STACK to before LINBOT
2693 7970 0200  20        LI R0,LINBOT
     7972 25C0     
2694 7974 0203  20        LI R3,LINBOT+2
     7976 25C2     
2695 7978 C800  30        MOV R0,@CURLIN  ; CURLIN = &LINBOT, current line is first line
     797A 8320     
2696 797C C800  30        MOV R0,@LINTOP  ; LINTOP = &LINBOT, top line is first line
     797E 8322     
2697 7980 C802  30        MOV R2,@CURSOR  ; CURSOR = 0, cursor is at top left of screen
     7982 8326     
2698 7984 C800  30        MOV R0,@RAND1
     7986 8328     
2699 7988 C80A  30        MOV R10,@RAND2  ; Random seed is non-zero
     798A 832A     
2700 798C C802  38        MOV R2,@TXTBOT  ; TXTBOT = 0, no program code
     798E A000     
2701 7990 0201  20        LI R1,>4000-LINBOT  ; total bytes to clear
     7992 1A40     
2702 7994 0702  14        SETO R2         ; clear to -1
2703 7996 C802  30        MOV R2,@MEMTOP  ; MEMTOP = >FFFF, memory top is last byte of RAM (no strings)
     7998 8324     
2704 799A CC02  34 INIT2  MOV R2,*R0+     ; clear a word at a time
2705 799C 0641  14        DECT R1         ; count down two bytes (one word)
2706 799E 16FD  14        JNE INIT2       ; Set -1 for entire line table
2707 79A0 020A  20        LI R10,TXTBOT   ; TXTPTR = &TXTBOT
     79A2 A000     
2708 79A4 C4CA  30        MOV R10,*R3     ; go back and set TXTBOT for first line table entry's code pointer
2709 79A6 04CE  14        CLR R14
2710 79A8 C39A  26        MOV *R10,R14    ; prepare first character of program
2711               * Init routines
2712 79AA 0200  20        LI R0,CHRGET
     79AC 832C     
2713 79AE 0201  20        LI R1,INITAT
     79B0 794E     
2714 79B2 0202  20        LI R2,CHRSIZ    ; total bytes to copy
     79B4 000C     
2715 79B6 CC31  46 INIT3  MOV *R1+,*R0+   ; copy a word at a time
2716 79B8 0642  14        DECT R2         ; count down two bytes (one word)
2717 79BA 16FD  14        JNE INIT3       ; Copy all memory from INITAT to before INIT (CHRGET routine) into scratchpad for speed
2718               * Init screen
2719 79BC 06A0  32        BL @VDPINI
     79BE 7A0C     
2720 79C0 0203  20        LI R3,HELLO
     79C2 79D4     
2721 79C4 06A0  32        BL @PRTNEG
     79C6 792E     
2722               * the end of init
2723 79C8 04CE  14        CLR R14          ; make sure low byte is empty so we can always use word compares
2724 79CA D39A  26        MOVB *R10,R14    ; prefetch character for GETSTT
2725 79CC 0300  22        LIMI 0           ; disable interrupts
     79CE 0000     
2726               *       LIMI 2           ; INTERRUPT: enable interrupts (required for sound, sprite motion, and timer counters)
2727 79D0 0460  28        B @NXTSTT        ; start fetching statements from test
     79D2 6228     
2728               * normally branch to main loop, but for testing freeze here
2729 79D4 4A41     HELLO  TEXT 'JACKALOPE BASIC V1'
     79D6 434B     
     79D8 414C     
     79DA 4F50     
     79DC 4520     
     79DE 4241     
     79E0 5349     
     79E2 4320     
     79E4 5631     
2730 79E6 0D              BYTE >0D
2731 79E7   32            TEXT '24576 BASIC BYTES FREE'
     79E8 3435     
     79EA 3736     
     79EC 2042     
     79EE 4153     
     79F0 4943     
     79F2 2042     
     79F4 5954     
     79F6 4553     
     79F8 2046     
     79FA 5245     
     79FC 45       
2732 79FD   F2            BYTE >F2
2733 79FE 0D       BREAK  BYTE >0D
2734 79FF   42            TEXT 'BREAK'     ; fall through to also print READY
     7A00 5245     
     7A02 414B     
2735 7A04 0D       READY  BYTE >0D
2736 7A05   52            TEXT 'READY.'
     7A06 4541     
     7A08 4459     
     7A0A 2E       
2737 7A0B   F2            BYTE >F2
2738                      EVEN
2739               
2740 7A0C C30B  18 VDPINI MOV R11,R12     ; save return address so VDPREG can be called
2741               * set default register values
2742 7A0E 0200  20        LI R0,>0000     ; VDP register 0, not in bitmap mode
     7A10 0000     
2743 7A12 06A0  32        BL @VDPREG      ; update VDP register
     7A14 7B78     
2744 7A16 0200  20        LI R0,>01E0     ; VDP register 1, 16K VRAM, blank disable, interrupt enable, not text mode, not multicolor mode, standard sprite size, no sprite magnification
     7A18 01E0     
2745 7A1A 06A0  32        BL @VDPREG      ; update VDP register
     7A1C 7B78     
2746 7A1E 06C0  14        SWPB R0
2747 7A20 D800  30        MOVB R0,@SHDWR1   ; always write to shadow register for VDP register 1
     7A22 83D4     
2748 7A24 0200  20        LI R0,>0200     ; VDP register 2, screen at                  >0000 to >02FF
     7A26 0200     
2749 7A28 06A0  32        BL @VDPREG      ; update VDP register
     7A2A 7B78     
2750 7A2C 0200  20        LI R0,>030E     ; VDP register 3, color table at             >0380 to >039F
     7A2E 030E     
2751 7A30 06A0  32        BL @VDPREG      ; update VDP register
     7A32 7B78     
2752 7A34 0200  20        LI R0,>0401     ; VDP register 4, pattern table at           >0800 to >0FFF
     7A36 0401     
2753 7A38 06A0  32        BL @VDPREG      ; update VDP register
     7A3A 7B78     
2754 7A3C 0200  20        LI R0,>0506     ; VDP register 5, sprite attribute list at   >0300 to >037F
     7A3E 0506     
2755 7A40 06A0  32        BL @VDPREG      ; update VDP register
     7A42 7B78     
2756 7A44 0200  20        LI R0,>0602     ; VDP register 6, sprite descriptor table at >1000 to >17FF
     7A46 0602     
2757 7A48 06A0  32        BL @VDPREG      ; update VDP register
     7A4A 7B78     
2758               *       LI R0,>0754     ; VDP register 7, foreground light blue, background dark blue
2759 7A4C 0200  20        LI R0,>0717     ; VDP register 7, foreground black, background cyan
     7A4E 0717     
2760 7A50 06A0  32        BL @VDPREG      ; update VDP register
     7A52 7B78     
2761               * turn off all sprites
2762 7A54 0200  20        LI R0,>300      ; sprite 0 y-position
     7A56 0300     
2763 7A58 0201  20        LI R1,>D000     ; (high byte) disable this and future sprites
     7A5A D000     
2764 7A5C 06A0  32        BL @VSBW        ; update VDP RAM
     7A5E 7B0A     
2765               * clear screen
2766 7A60 04C0  14        CLR R0
2767 7A62 0201  20        LI R1,CSPACE
     7A64 2000     
2768 7A66 0202  20        LI R2,768
     7A68 0300     
2769 7A6A 06A0  32        BL @VMBS
     7A6C 7B5A     
2770               * set default color table (only sets 4-15 where characters 30-95 are defined)
2771               *       LI R1,>5000     ; 5000=light blue on transparent (screen background is dark blue)
2772 7A6E 0201  20        LI R1,>1000     ; 1000=black on transparent (screen background is cyan)
     7A70 1000     
2773 7A72 0200  20        LI R0,>0384     ; start at character set 4 with space
     7A74 0384     
2774 7A76 0202  20        LI R2,12        ; stop at character set 15 with cursor
     7A78 000C     
2775 7A7A 06A0  32        BL @VMBS
     7A7C 7B5A     
2776               * load upper/lower case font from GROM to VDP RAM (don't change any other characters)
2777 7A7E 04C0  14        CLR R0
2778 7A80 0204  20        LI R4,>4E       ; Load GROM index address for upper/lower case font into r4
     7A82 004E     
2779 7A84 D804  38        MOVB R4,@GRMWA  ; Setup GROM source byte 1 for reading
     7A86 9C02     
2780 7A88 06C4  14        SWPB R4
2781 7A8A D804  38        MOVB R4,@GRMWA  ; Setup GROM source byte 2 for reading
     7A8C 9C02     
2782 7A8E D160  34        MOVB @GRMRD,R5  ; Read font table address byte 1
     7A90 9800     
2783 7A92 06C5  14        SWPB R5
2784 7A94 D160  34        MOVB @GRMRD,R5  ; Read font table address byte 2
     7A96 9800     
2785 7A98 06C5  14        SWPB R5
2786 7A9A D805  38        MOVB R5,@GRMWA
     7A9C 9C02     
2787 7A9E 06C5  14        SWPB R5
2788 7AA0 D805  38        MOVB R5,@GRMWA  ; Setup GROM address for reading
     7AA2 9C02     
2789 7AA4 0204  20        LI R4,>0900     ; VDP destination is pattern #32(space) address
     7AA6 0900     
2790 7AA8 0264  22        ORI R4,>4000    ; set memory access flag
     7AAA 4000     
2791 7AAC 06C4  14        SWPB R4
2792 7AAE D804  30        MOVB R4,@VDPWA  ; write VDP low address byte
     7AB0 8C02     
2793 7AB2 06C4  14        SWPB R4
2794 7AB4 D804  30        MOVB R4,@VDPWA  ; write VDP high address byte
     7AB6 8C02     
2795 7AB8 0206  20        LI R6,96*7      ; Get number of bytes to copy (characters  ; 7 rows, top row is blank)
     7ABA 02A0     
2796 7ABC 0205  20        LI R5,>0101     ; every 8th bit used to mark when to inject a spacer row in the character definition
     7ABE 0101     
2797               * Copy from GROM to VRAM
2798 7AC0 0B15  18 FONT1  SRC R5,1        ; rotate low bit into carry
2799 7AC2 1703  14        JNC FONT2
2800 7AC4 D800  30        MOVB R0,@VDPWD  ; on carry insert a blank row in the character definition
     7AC6 8C00     
2801 7AC8 10FB  14        JMP FONT1       ; skip to next iteration
2802 7ACA D120  34 FONT2  MOVB @GRMRD,R4  ; read next row of character from GRAM
     7ACC 9800     
2803 7ACE D804  30        MOVB R4,@VDPWD  ; write it to VRAM
     7AD0 8C00     
2804 7AD2 0606  14        DEC R6          ; count down number of bytes to copy
2805 7AD4 16F5  14        JNE FONT1
2806               * load bonus characters
2807 7AD6 0701  14        SETO R1
2808 7AD8 0200  20        LI R0,127*8+>0800  ; start at character 30 to include cursor character
     7ADA 0BF8     
2809 7ADC 0202  20        LI R2,8        ; stop at character 31 to include edge character
     7ADE 0008     
2810 7AE0 06A0  32        BL @VMBS
     7AE2 7B5A     
2811 7AE4 045C  20        B *R12
2812               * end INIT -----------------------------------------
2813               
2814               * start VIDEO -----------------------------------------
2815 7AE6 00       hb$00  BYTE >00       ; Byte 0
2816 7AE7   20     SPACE  BYTE >20       ; Byte 32 (also the ASCII space)
2817 7AE8 2E       B46    BYTE >2E       ; Byte value 46 (also the ASCII period)
2818 7AE9   AA     B170   BYTE 170       ; Byte value 170
2819                      EVEN
2820               * Utility addresses
2821 7AEA 2536     KSCAN  DATA UTILWS,KSCAN1  ; UTILWS is only temporary to pass to GPLWS without overwriting R13-15
     7AEC 7B8E     
2822 7AEE 2536     DSRLNK DATA UTILWS,DSR
     7AF0 7BAA     
2823 7AF2 2536     SUBLNK DATA UTILWS,SUB
     7AF4 7BA4     
2824               
2825               * Video Single Byte Read
2826               * In: R0=VDP address; Out: R1=data
2827 7AF6 06C0  14 VSBR   SWPB R0
2828 7AF8 D800  30        MOVB R0,@VDPWA  ; write low address byte
     7AFA 8C02     
2829 7AFC 06C0  14        SWPB R0
2830 7AFE D800  30        MOVB R0,@VDPWA  ; write high address byte
     7B00 8C02     
2831 7B02 1000  14        NOP             ; delay
2832 7B04 D060  30        MOVB @VDPRD,R1  ; read data
     7B06 8800     
2833 7B08 045B  20        B *R11
2834               
2835               * Video Single Byte Write
2836               * In: R0=VDP address, R1=data
2837 7B0A 0260  22 VSBW   ORI  R0,>4000   ; set memory flag
     7B0C 4000     
2838 7B0E 06C0  14        SWPB R0
2839 7B10 D800  30        MOVB R0,@VDPWA  ; write low address byte
     7B12 8C02     
2840 7B14 06C0  14        SWPB R0
2841 7B16 D800  30        MOVB R0,@VDPWA  ; write high address byte
     7B18 8C02     
2842 7B1A 0240  22        ANDI R0,>3FFF   ; undo changes to R0
     7B1C 3FFF     
2843 7B1E D801  30        MOVB R1,@VDPWD  ; write data
     7B20 8C00     
2844 7B22 045B  20        B *R11
2845               
2846               * Video Multiple Byte Read
2847               * In: R0=VDP base address, R1=CPU base address, R2=length; modified R1, R2
2848 7B24 06C0  14 VMBR   SWPB R0
2849 7B26 D800  30        MOVB R0,@VDPWA  ; write low address byte
     7B28 8C02     
2850 7B2A 06C0  14        SWPB R0
2851 7B2C D800  30        MOVB R0,@VDPWA  ; write high address byte
     7B2E 8C02     
2852 7B30 1000  14        NOP             ; delay
2853 7B32 DC60  44 VMBR2  MOVB @VDPRD,*R1+  ; write data to CPU and advance source pointer
     7B34 8800     
2854 7B36 0602  14        DEC  R2         ; count down
2855 7B38 16FC  14        JNE  VMBR2      ; repeat until no bytes to copy
2856 7B3A 045B  20        B *R11
2857               
2858               * Video Multiple Byte Write (write different bytes)
2859               * In: R0=VDP base address, R1=CPU base address, R2=length; modified R1, R2
2860 7B3C 0260  22 VMBW   ORI  R0,>4000   ; set memory flag
     7B3E 4000     
2861 7B40 06C0  14        SWPB R0
2862 7B42 D800  30        MOVB R0,@VDPWA  ; write low address byte
     7B44 8C02     
2863 7B46 06C0  14        SWPB R0
2864 7B48 D800  30        MOVB R0,@VDPWA  ; write high address byte
     7B4A 8C02     
2865 7B4C 0240  22        ANDI R0,>3FFF   ; undo changes to R0
     7B4E 3FFF     
2866 7B50 D831  40 VMBW2  MOVB *R1+,@VDPWD  ; write data to VDP and advance source pointer
     7B52 8C00     
2867 7B54 0602  14        DEC  R2         ; count down
2868 7B56 16FC  14        JNE  VMBW2      ; repeat until no bytes to copy
2869 7B58 045B  20        B *R11
2870               
2871               * Video Multiple Byte Stream (write same byte multiple times)
2872               * In: R0=VDP base address, R1=data, R2=length; modified R2
2873 7B5A 0260  22 VMBS   ORI  R0,>4000   ; set memory flag
     7B5C 4000     
2874 7B5E 06C0  14        SWPB R0
2875 7B60 D800  30        MOVB R0,@VDPWA  ; write low address byte
     7B62 8C02     
2876 7B64 06C0  14        SWPB R0
2877 7B66 D800  30        MOVB R0,@VDPWA  ; write high address byte
     7B68 8C02     
2878 7B6A 0240  22        ANDI R0,>3FFF   ; undo changes to R0
     7B6C 3FFF     
2879 7B6E D801  30 VMBS2  MOVB R1,@VDPWD  ; write data
     7B70 8C00     
2880 7B72 0602  14        DEC  R2         ; count down
2881 7B74 16FC  14        JNE  VMBS2      ; repeat until no bytes to copy
2882 7B76 045B  20        B *R11
2883               
2884               * Video Write to Register
2885               * In: R0={'10, register[5:0], data}
2886 7B78 0260  22 VDPREG ORI  R0,>8000   ; set register flag
     7B7A 8000     
2887 7B7C 06C0  14        SWPB R0
2888 7B7E D800  30        MOVB R0,@VDPWA  ; write data
     7B80 8C02     
2889 7B82 06C0  14        SWPB R0
2890 7B84 D800  30        MOVB R0,@VDPWA  ; write register
     7B86 8C02     
2891 7B88 0240  22        ANDI R0,>3FFF   ; undo changes to R0
     7B8A 3FFF     
2892 7B8C 045B  20        B *R11
2893               
2894               * Keyboard Scan
2895               * SCAN uses R0,1,2,3,4,5,6,7,8,9,11,12,13,14,15 (really needs BLWP!)
2896 7B8E 02E0  18 KSCAN1 LWPI GPLWS
     7B90 83E0     
2897 7B92 C80B  38        MOV  R11,@UTILWS+22
     7B94 254C     
2898 7B96 06A0  28        BL   @SCAN
     7B98 02B2     
2899 7B9A 02E0  18        LWPI UTILWS
     7B9C 2536     
2900 7B9E C80B  34        MOV  R11,@>83F6
     7BA0 83F6     
2901 7BA2 0380  30        RTWP
2902               
2903               * SUBLNK routine
2904 7BA4 0205  24 SUB    LI   R5,10
     7BA6 000A     
2905 7BA8 1002  14        JMP  DSR0
2906               * DSRLNK routine
2907 7BAA 0205  24 DSR    LI   R5,8
     7BAC 0008     
2908 7BAE 53E0  42 DSR0   SZCB @SPACE,R15
     7BB0 7AE7     
2909 7BB2 C020  38        MOV  @DSRNAM,R0
     7BB4 8356     
2910 7BB6 C1C0  30        MOV  R0,R7
2911 7BB8 D820  46        MOVB @DSRWS0,@VDPWA
     7BBA 2537     
     7BBC 8C02     
2912 7BBE 1000  14        NOP
2913 7BC0 D800  34        MOVB R0,@VDPWA
     7BC2 8C02     
2914 7BC4 0220  30        AI   R0,-8
     7BC6 FFF8     
2915 7BC8 D060  38        MOVB @VDPRD,R1
     7BCA 8800     
2916 7BCC D0C1  30        MOVB R1,R3
2917 7BCE 135A  14        JEQ  DSR9
2918 7BD0 0983  48        SRL  R3,8
2919 7BD2 0704  22        SETO R4
2920 7BD4 0202  24        LI   R2,DSRWRK
     7BD6 2556     
2921 7BD8 0584  22 DSR1   INC  R4
2922 7BDA 0284  26        CI   R4,7
     7BDC 0007     
2923 7BDE 1B52  14        JH   DSR9
2924 7BE0 80C4  26        C    R4,R3
2925 7BE2 1306  14        JEQ  DSR2
2926 7BE4 D060  38        MOVB @VDPRD,R1
     7BE6 8800     
2927 7BE8 DC81  44        MOVB R1,*R2+
2928 7BEA 9801  38        CB   R1,@B46
     7BEC 7AE8     
2929 7BEE 16F4  14        JNE  DSR1
2930 7BF0 04E0  26 DSR2   CLR  @CRULST
     7BF2 83D0     
2931 7BF4 C804  34        MOV  R4,@DSRSIZ
     7BF6 8354     
2932 7BF8 0584  22        INC  R4
2933 7BFA A804  34        A    R4,@DSRNAM
     7BFC 8356     
2934 7BFE 02E0  18        LWPI GPLWS
     7C00 83E0     
2935 7C02 04C1  14        CLR  R1
2936 7C04 020C  20 DSR2A  LI   R12,>0F00
     7C06 0F00     
2937 7C08 1E00  16 DSR3   SBZ  0
2938 7C0A 022C  22 DSR3A  AI   R12,>0100
     7C0C 0100     
2939 7C0E 04E0  26        CLR  @CRULST
     7C10 83D0     
2940 7C12 028C  22        CI   R12,>2000
     7C14 2000     
2941 7C16 1332  14        JEQ  DSR8
2942 7C18 C80C  30 CRUOK  MOV  R12,@CRULST
     7C1A 83D0     
2943 7C1C 1D00  16        SBO  0
2944 7C1E 0202  20        LI   R2,>4000
     7C20 4000     
2945 7C22 9812  42        CB   *R2,@B170
     7C24 7AE9     
2946 7C26 16F0  14        JNE  DSR3
2947 7C28 A0A0  34        A    @DSRWS5,R2
     7C2A 2540     
2948 7C2C 1003  14        JMP  DSR5
2949 7C2E C0A0  30 DSR4   MOV  @SAVADD,R2
     7C30 83D2     
2950 7C32 1D00  16        SBO  0
2951 7C34 C092  26 DSR5   MOV  *R2,R2
2952 7C36 13E8  14        JEQ  DSR3
2953 7C38 C802  30        MOV  R2,@SAVADD
     7C3A 83D2     
2954 7C3C 05C2  14        INCT R2
2955 7C3E C272  30        MOV  *R2+,R9
2956 7C40 D160  30        MOVB @DSRSIZ+1,R5
     7C42 8355     
2957 7C44 1309  14        JEQ  DSR7
2958 7C46 9C85  28        CB   R5,*R2+
2959 7C48 16F2  14        JNE  DSR4
2960 7C4A 0985  40        SRL  R5,8
2961 7C4C 0206  20        LI   R6,DSRWRK
     7C4E 2556     
2962 7C50 9CB6  38 DSR6   CB   *R6+,*R2+
2963 7C52 16ED  14        JNE  DSR4
2964 7C54 0605  14        DEC  R5
2965 7C56 16FC  14        JNE  DSR6
2966 7C58 0581  14 DSR7   INC  R1
2967 7C5A 0699  24        BL   *R9
2968 7C5C 10E8  14        JMP  DSR4
2969 7C5E 1E00  16        SBZ  0
2970 7C60 02E0  18        LWPI UTILWS
     7C62 2536     
2971 7C64 C807  34        MOV  R7,@DSRNAM
     7C66 8356     
2972 7C68 D820  46        MOVB @DSRWS0,@VDPWA
     7C6A 2537     
     7C6C 8C02     
2973 7C6E D800  34        MOVB R0,@VDPWA
     7C70 8C02     
2974 7C72 D060  38        MOVB @VDPRD,R1
     7C74 8800     
2975 7C76 09D1  58        SRL  R1,13
2976 7C78 1606  14        JNE  DSR10
2977 7C7A 0380  30        RTWP
2978 7C7C 02E0  18 DSR8   LWPI UTILWS
     7C7E 2536     
2979 7C80 C807  34        MOV  R7,@DSRNAM
     7C82 8356     
2980 7C84 04C1  22 DSR9   CLR  R1
2981 7C86 06C1  22 DSR10  SWPB R1
2982 7C88 D741  38        MOVB R1,*R13
2983 7C8A F3E0  42        SOCB @SPACE,R15
     7C8C 7AE7     
2984 7C8E 0380  30        RTWP
2985               * end VIDEO -----------------------------------------
2986               
2987               * GROM addresses >0000 - >1FFF
2988      02B2     SCAN   EQU >02B2  ; >000E is an indirect that just consumes time
2989      04B2     CHKCLR EQU >04B2  ; uses R12 only
2990               
2991               * CPU scratchpad RAM >8300 - >83FF
2992      8300     BASWP  EQU >8300      ; workspace for BASIC interpretter
2993      8320     CURLIN EQU BASWP+32   ; Save pointer into current line pointer table entry when reading each line (for skipping false IFs)
2994      8322     LINTOP EQU CURLIN+2   ; Pointer to end of line pointers in low memory (word where -1 is found)
2995      8324     MEMTOP EQU LINTOP+2   ; Pointer to end of line strings in high memory (above this usable for strings)
2996      8326     CURSOR EQU MEMTOP+2   ; Cursor position in VDP RAM
2997      8328     RAND1  EQU CURSOR+2   ; Random number
2998      832A     RAND2  EQU RAND1+2    ; Used to generate random number
2999      832C     CHRGET EQU RAND2+2    ; CHRGET routine (for speed)
3000      000C     CHRSIZ EQU INIT-INITAT  ; number of bytes in CHRGET routine
3001      8338     TEMPF1 EQU CHRGET+CHRSIZ  ; fast temp #1 (used in CHROUT and CHKEND and TOKEND and SLOAD/SSAVE)
3002      833A     TEMPF2 EQU TEMPF1+2   ; fast temp #2 (used in CHROUT and TOKARG and SLOAD/SSAVE)
3003      833C     TEMPF3 EQU TEMPF2+2   ; fast temp #3 (used in CHROUT and TOKIZE and SLOAD/SSAVE)
3004      833E     TEMPF4 EQU TEMPF3+2   ; fast temp #4 (used in TOKIZE and SLIST and LSOPT)
3005      8340     TEMPF5 EQU TEMPF4+2   ; fast temp #5 (used in SLIST)
3006      8342     ENDLIN EQU TEMPF5+2   ; End of line flag for SPRINT
3007      8343     NXTPAD EQU ENDLIN+1   ; next scratchpad address (for adding more high speed storage locations)
3008               * 43-53 available (8.5 words/17 bytes)
3009      8374     KEYDEV EQU >8374      ; keyboard device to check (byte)
3010      8375     KEYKEY EQU >8375      ; key pressed (byte)
3011      837C     GPLSTS EQU >837C      ; keyboard and DSR status (byte)
3012               * 80-BF GPL stack not available because of SCAN
3013      83E0     GPLWS  EQU >83E0      ; GPL workspace registers
3014               
3015               * Low expansion RAM >2000 - >3FFF
3016      0100     STKSIZ EQU >0100      ; size of BASIC stack
3017      0006     GSBSIZ EQU 6          ; size of a GOSUB entry on the stack
3018      000C     FORSIZ EQU 12         ; size of a FOR entry on the stack
3019      0100     LINSIZ EQU >0100      ; size of line input buffer
3020      02E0     VDPSIZ EQU >02E0      ; Size of screen minus 1 line (768-32)
3021      2000     STACK  EQU >2000      ; BASIC stack for FOR/NEXT and GOSUB/RETURN statements
3022      2100     LINBUF EQU STACK+STKSIZ  ; Line input buffer (overlap middle of VDPBUF)
3023      2200     VDPBUF EQU LINBUF+LINSIZ  ; Room to save screen minus 1 line, also used for tokenization of input line
3024                      EVEN           ; any workspace register set must be aligned
3025      24E0     SYSWS  EQU VDPBUF+VDPSIZ  ; workspace for SYS statement
3026      2500     VARS   EQU SYSWS+32   ; 26 words for variables A-Z
3027      2534     SCROLL EQU VARS+52    ; indicator that last CHROUT resulted in screen scrolling (0=no, -1=yes)
3028      2535     OPENED EQU SCROLL+1   ; indicator that a file is open (0=no, -1=yes)
3029                      EVEN           ; any workspace register set must be aligned
3030      2536     UTILWS EQU OPENED+1   ; workspace for utility routines (only for KSCAN, DSRLNK)
3031      2556     DSRWRK EQU UTILWS+32  ; DSR workspace array (80 bytes)
3032      001A     PABSIZ EQU 26         ; size of PAB
3033      25A6     CPUPAB EQU DSRWRK+80  ; File handle assembly point for LOAD/SAVE in CPU RAM
3034      25A8     PABADR EQU CPUPAB+2   ; Buffer address in VDP RAM for LOAD/SAVE
3035      25AC     PABLEN EQU CPUPAB+6   ; Data length for LOAD/SAVE
3036      25AF     PABFNL EQU CPUPAB+9   ; Filename length
3037      25B0     PABNAM EQU CPUPAB+10  ; Filename
3038      373E     VDPPAB EQU 14142      ; Actual file handle for LOAD/SAVE in VDP RAM
3039      3758     FILBUF EQU VDPPAB+PABSIZ  ; File buffer for LOAD/SAVE in VDP RAM (just below floppy drive controller reserved space)
3040      25C0     NXTLBL EQU CPUPAB+PABSIZ  ; Placeholder for next available address in low memory
3041      0006     LTESIZ EQU 6          ; Line table entry size (6 bytes/3 words)
3042      25C0     LINBOT EQU >25C0      ; Equate to start of line pointers in low memory
3043               * Line pointer table entry = WORD line number (-1 is end), WORD pointer (next free byte at end), WORD length (0 at end)
3044               * Starting at >25C0 leaves room for 1120 lines
3045               
3046               * High expansion RAM >A000 - >FFFF
3047      A000     TXTBOT EQU >A000      ; Equate to start of lines in high memory
3048               
3049               * Hardware bridge register addresses
3050      8C02     VDPWA  EQU >8C02      ; VDP RAM write address
3051      8800     VDPRD  EQU >8800      ; VDP RAM read data
3052      8C00     VDPWD  EQU >8C00      ; VDP RAM write data
3053      8802     VDPSTA EQU >8802      ; VDP RAM status
3054      83D4     SHDWR1 EQU >83D4      ; VDP register 1 shadow (always update)
3055      8400     SOUND  EQU >8400      ; Sound chip register bridge address
3056               * GROM registers
3057      9C02     GRMWA  EQU >9C02      ; GROM/GRAM write address
3058      9802     GRMRA  EQU >9802      ; GROM/GRAM read address
3059      9800     GRMRD  EQU >9800      ; GROM/GRAM read data
3060      9C00     GRMWD  EQU >9C00      ; GROM/GRAM write data
3061               * Utility constants
3062      8354     DSRSIZ EQU >8354      ; Name length
3063      8356     DSRNAM EQU >8356      ; DSR address
3064      83D0     CRULST EQU >83D0      ; CRU list
3065      83D2     SAVADD EQU >83D2      ; Save address
3066      2540     DSRWS5 EQU UTILWS+10  ; DSR register 5
3067      2537     DSRWS0 EQU UTILWS+1   ; DSR register 0 low byte
3068      0000     DSROPN EQU >0000      ; OPEN
3069      0100     DSRCLS EQU >0100      ; CLOSE
3070      0200     DSRRD  EQU >0200      ; READ
3071      0300     DSRWR  EQU >0300      ; WRITE
3072               
3073               * character codes/joystick
3074      0200     CCLEAR EQU >0200      ; clear (FN+4) [break]
3075      0800     CLEFT  EQU >0800      ; left arrow [delete]
3076      0900     CRIGHT EQU >0900      ; right arrow [tab]
3077      0D00     CENTER EQU >0D00      ; enter
3078      2000     CSPACE EQU >2000      ; space
3079      7F00     CCURSR EQU >7F00      ; cursor
3080               *JOYB   EQU >0100      ; joystick button
3081               *JOYL   EQU >0200      ; joystick left
3082               *JOYR   EQU >0400      ; joystick right
3083               *JOYD   EQU >0800      ; joystick down
3084               *JOYU   EQU >1000      ; joystick up
                   < stevie_b9.asm
    adrdec.............. >6ea6 :     
    atoi................ >7888 :     
    atoi1............... >78a6 :     
    atoi2............... >78c6 :     
    atoi3............... >78cc :     
    atoi4............... >78aa :     
    atoi5............... >78d0 :     
    b170................ >7ae9 :     
    b46................. >7ae8 :     
    bank0.ram........... >6800 :     
    bank0.rom........... >6000 :     
    bank1.ram........... >6802 :     
    bank1.rom........... >6002 :     
    bank2.ram........... >6804 :     
    bank2.rom........... >6004 :     
    bank3.ram........... >6806 :     
    bank3.rom........... >6006 :     
    bank4.ram........... >6808 :     
    bank4.rom........... >6008 :     
    bank5.ram........... >680a :     
    bank5.rom........... >600a :     
    bank6.ram........... >680c :     
    bank6.rom........... >600c :     
    bank7.ram........... >680e :     
    bank7.rom........... >600e :     
    bank8.ram........... >6810 :     
    bank8.rom........... >6010 :     
    bank9.ram........... >6812 :     
    bank9.rom........... >6012 :     
    banka.ram........... >6814 :     
    banka.rom........... >6014 :     
    bankb.ram........... >6816 :     
    bankb.rom........... >6016 :     
    bankc.ram........... >6818 :     
    bankc.rom........... >6018 :     
    bankd.ram........... >681a :     
    bankd.rom........... >601a :     
    banke.ram........... >681c :     
    banke.rom........... >601c :     
    bankf.ram........... >681e :     
    bankf.rom........... >601e :     
    basnm1.............. >74a6 :     
    baswp............... >8300 :     
    break............... >79fe :     
    cclear.............. >0200 :     
    ccursr.............. >7f00 :     
    center.............. >0d00 :     
    chardn.............. >7106 :     
    charl1.............. >70b4 :     
    charl2.............. >70d6 :     
    chkclr.............. >04b2 :     
    chken1.............. >7668 :     
    chkend.............. >7658 :     
    chrget.............. >832c :     
    chrou2.............. >7746 :     
    chrou3.............. >7754 :     
    chrou4.............. >7782 :     
    chrour.............. >77c6 :     
    chrout.............. >7720 :     
    chrsiz.............. >000c :     
    cleft............... >0800 :     
    close............... >77d0 :     
    clrvar.............. >658e :     
    color1.............. >7168 :     
    cpupab.............. >25a6 :     
    cright.............. >0900 :     
    crulst.............. >83d0 :     
    cruok............... >7c18 :     
    cspace.............. >2000 :     
    curlin.............. >8320 :     
    cursor.............. >8326 :     
    decret.............. >7058 :     
    dodecr.............. >7056 :     
    dostmt.............. >6222 :     
    dskerr.............. >782e :     
    dskin............... >77ea :     
    dskin1.............. >77ec :     
    dskin2.............. >77f6 :     
    dskin3.............. >7828 :     
    dsko1............... >7848 :     
    dsko2............... >7850 :     
    dsko3............... >7882 :     
    dskout.............. >7846 :     
    dsr................. >7baa :     
    dsr0................ >7bae :     
    dsr1................ >7bd8 :     
    dsr10............... >7c86 :     
    dsr2................ >7bf0 :     
    dsr2a............... >7c04 :     
    dsr3................ >7c08 :     
    dsr3a............... >7c0a :     
    dsr4................ >7c2e :     
    dsr5................ >7c34 :     
    dsr6................ >7c50 :     
    dsr7................ >7c58 :     
    dsr8................ >7c7c :     
    dsr9................ >7c84 :     
    dsrcls.............. >0100 :     
    dsrlnk.............. >7aee :     
    dsrnam.............. >8356 :     
    dsropn.............. >0000 :     
    dsrrd............... >0200 :     
    dsrsiz.............. >8354 :     
    dsrwr............... >0300 :     
    dsrwrk.............. >2556 :     
    dsrws0.............. >2537 :     
    dsrws5.............. >2540 :     
    endlin.............. >8342 :     
    eos................. >7118 :     
    errend.............. >754e :     
    errlin.............. >7557 :     
    errmsg.............. >7552 :     
    error............... >751e :     
    expne0.............. >7482 :     
    expne1.............. >748a :     
    fadd................ >7410 :     
    fbwand.............. >74d0 :     
    fbwor............... >74da :     
    fbwshl.............. >74ec :     
    fbwshr.............. >74f8 :     
    fbwxor.............. >74e0 :     
    fcomp0.............. >740e :     
    fcomp1.............. >740c :     
    fdiv................ >7446 :     
    fdiv1............... >7454 :     
    fdiv2............... >745e :     
    fdivr............... >7466 :     
    fequal.............. >73ee :     
    fgreat.............. >73de :     
    fgrequ.............. >73fe :     
    filbuf.............. >3758 :     
    findl1.............. >7646 :     
    findl2.............. >7652 :     
    findln.............. >7642 :     
    fiomsg.............. >7579 :     
    flesst.............. >73e6 :     
    fltequ.............. >7406 :     
    fmod................ >7468 :     
    fmult............... >741c :     
    fmult1.............. >7428 :     
    fmult2.............. >7432 :     
    fmulte.............. >7442 :     
    fmultr.............. >7440 :     
    font1............... >7ac0 :     
    font2............... >7aca :     
    for1................ >688e :     
    for2................ >68a8 :     
    forarg.............. >68c0 :     
    forins.............. >68ea :     
    foroom.............. >690a :     
    forret.............. >6902 :     
    forsiz.............. >000c :     
    forsyn.............. >6906 :     
    fortos.............. >68b4 :     
    fpower.............. >7478 :     
    fshif0.............. >750a :     
    fshif1.............. >7506 :     
    fshift.............. >74e6 :     
    fsub................ >7416 :     
    ftable.............. >605a :     
    funequ.............. >73f6 :     
    geterr.............. >6a72 :     
    getnew.............. >6a5e :     
    getst1.............. >61fa :     
    getst2.............. >6206 :     
    getst3.............. >6212 :     
    getste.............. >6224 :     
    getstt.............. >61e8 :     
    getupd.............. >6a6a :     
    getvc............... >75ce :     
    getvc0.............. >75f4 :     
    getvc1.............. >761a :     
    getvc2.............. >7638 :     
    getvce.............. >763e :     
    gooom............... >67a0 :     
    gosub1.............. >6766 :     
    gosub2.............. >6790 :     
    gosube.............. >679c :     
    gouser.............. >67a4 :     
    gplsts.............. >837c :     
    gplws............... >83e0 :     
    grmra............... >9802 :     
    grmrd............... >9800 :     
    grmwa............... >9c02 :     
    grmwd............... >9c00 :     
    gsbsiz.............. >0006 :     
    hb$00............... >7ae6 :     
    hello............... >79d4 :     
    hexdn1.............. >70ce :     
    hexdn2.............. >70ec :     
    hscrll.............. >7760 :     
    if1................. >680e :     
    if2................. >681e :     
    ifeval.............. >685e :     
    ifexpr.............. >682e :     
    ifline.............. >687a :     
    iftrue.............. >6866 :     
    incdec.............. >703a :     
    init................ >795a :     
    init1............... >796a :     
    init2............... >799a :     
    init3............... >79b6 :     
    initat.............. >794e :     
    inpcpy.............. >6a22 :     
    inpnul.............. >6a34 :     
    invl2............... >7112 :     
    iqerr............... >7514 :     
    iqmsg............... >7567 :     
    itoa................ >78d8 :     
    itoa1............... >78f2 :     
    itoa2............... >78fc :     
    itoa3............... >790c :     
    itoa4............... >7916 :     
    joy1................ >7310 :     
    joy2................ >7316 :     
    joy3................ >731c :     
    joy4................ >7322 :     
    joyerr.............. >7332 :     
    joyfin.............. >7328 :     
    kadd................ >6118 :     
    kaddr............... >6168 :     
    kasc................ >6164 :     
    kbwand.............. >6124 :     
    kbwor............... >612a :     
    kbwxor.............. >6127 :     
    kchar............... >60cf :     
    kchr................ >613b :     
    kclear.............. >60d3 :     
    kclr................ >607d :     
    kcolor.............. >60d8 :     
    kdiv................ >611e :     
    kdpeek.............. >6143 :     
    kdpoke.............. >60b2 :     
    kend................ >6099 :     
    kequal.............. >610c :     
    keyarg.............. >61ac :     
    keydev.............. >8374 :     
    keyend.............. >61e8 :     
    keykey.............. >8375 :     
    keywrd.............. >616a :     
    kfor................ >609e :     
    kget................ >60af :     
    kgosub.............. >608e :     
    kgoto............... >608a :     
    kgreat.............. >6114 :     
    kgtequ.............. >6110 :     
    kif................. >609c :     
    kinit............... >60e9 :     
    kinput.............. >60aa :     
    kjoyst.............. >60fa :     
    klen................ >6157 :     
    klesst.............. >6116 :     
    klist............... >6083 :     
    kload............... >60c0 :     
    klocat.............. >60dd :     
    kltequ.............. >6112 :     
    kmagni.............. >60ed :     
    kmod................ >6120 :     
    kmult............... >611c :     
    knew................ >6080 :     
    knext............... >60a1 :     
    knoise.............. >6107 :     
    knot................ >6140 :     
    kpeek............... >614f :     
    kpoke............... >60bc :     
    kpower.............. >6122 :     
    kprint.............. >60a5 :     
    krem................ >60c8 :     
    kretur.............. >6093 :     
    krnd................ >6154 :     
    krun................ >6087 :     
    ksave............... >60c4 :     
    kscan............... >7aea :     
    kscan1.............. >7b8e :     
    kscree.............. >60e3 :     
    kshift.............. >612c :     
    ksound.............. >6102 :     
    ksprit.............. >60f4 :     
    kstep............... >6137 :     
    kstr................ >615b :     
    ksub................ >611a :     
    ksys................ >607a :     
    kthen............... >6133 :     
    kto................. >6131 :     
    kunequ.............. >610e :     
    kval................ >6160 :     
    kvpeek.............. >6149 :     
    kvpoke.............. >60b7 :     
    kwait............... >60cb :     
    lddat1.............. >6b46 :     
    ldhdr............... >6b06 :     
    ldmem............... >6baa :     
    ldmem1.............. >6bb2 :     
    ldvdp1.............. >6b7a :     
    ldvdp2.............. >6b82 :     
    let1................ >6ef0 :     
    let2................ >6f04 :     
    let2b............... >6f18 :     
    let2c............... >6f26 :     
    let2d............... >6f30 :     
    let3................ >6f48 :     
    let4................ >6f6c :     
    let4a............... >6f82 :     
    let4b............... >6f8a :     
    let4c............... >6fa0 :     
    let4d............... >6fbe :     
    let4e............... >6fc6 :     
    let4f............... >6fce :     
    let5................ >6fda :     
    let6................ >6ff2 :     
    letcon.............. >6ebc :     
    letiq............... >6e74 :     
    letret.............. >701e :     
    letse............... >6f3e :     
    letsyn.............. >7028 :     
    letvar.............. >6eb2 :     
    linbot.............. >25c0 :     
    linbuf.............. >2100 :     
    linent.............. >76d6 :     
    linget.............. >766e :     
    linke1.............. >76d0 :     
    linke2.............. >76f0 :     
    linke3.............. >76fa :     
    linkey.............. >7686 :     
    linret.............. >76ee :     
    linsiz.............. >0100 :     
    lintop.............. >8322 :     
    list0............... >6674 :     
    list1............... >6686 :     
    list2............... >66a0 :     
    list3............... >66ba :     
    list3b.............. >66d2 :     
    list4............... >66e4 :     
    list5............... >66f2 :     
    list5l.............. >670c :     
    list6............... >6718 :     
    listc............... >6642 :     
    listd1.............. >6672 :     
    listdn.............. >6730 :     
    listdo.............. >6600 :     
    listea.............. >65f8 :     
    listeb.............. >65fa :     
    listl............... >660e :     
    listl1.............. >6620 :     
    loadba.............. >6bf6 :     
    loadcl.............. >6c32 :     
    loaddn.............. >6c28 :     
    loader.............. >6bc8 :     
    loadio.............. >6bba :     
    loadiq.............. >6bc4 :     
    loadjb.............. >6bdc :     
    loadrt.............. >6c40 :     
    loadse.............. >6bbe :     
    lociq............... >71be :     
    locsyn.............. >71ba :     
    lsopt............... >6d8e :     
    lsopt1.............. >6dba :     
    lsopt2.............. >6dc4 :     
    lspab............... >6dde :     
    lspab1.............. >6df0 :     
    lspab2.............. >6e4c :     
    lspreq.............. >6db4 :     
    ltesiz.............. >0006 :     
    memtop.............. >8324 :     
    next1............... >6912 :     
    next2............... >692c :     
    next3............... >6962 :     
    nextdn.............. >695e :     
    nexter.............. >6972 :     
    nextm............... >6948 :     
    nextnd.............. >694e :     
    nothex.............. >710e :     
    notl1............... >70c4 :     
    notl2............... >70e2 :     
    nwfmsg.............. >75af :     
    nxtcmd.............. >6278 :     
    nxtlbl.............. >25c0 :     
    nxtpad.............. >8343 :     
    nxtrdy.............. >6270 :     
    nxtst0.............. >623a :     
    nxtst1.............. >624c :     
    nxtst2.............. >625e :     
    nxtstt.............. >6228 :     
    ofmsg............... >7582 :     
    oomerr.............. >751a :     
    oommsg.............. >75c0 :     
    opened.............. >2535 :     
    pabadr.............. >25a8 :     
    pabfnl.............. >25af :     
    pablen.............. >25ac :     
    pabnam.............. >25b0 :     
    pabsiz.............. >001a :     
    poke1............... >6a8e :     
    poke2............... >6a96 :     
    poke3............... >6aa0 :     
    pokeiq.............. >6aa8 :     
    pokese.............. >6aa4 :     
    powiq............... >74c4 :     
    powlp............... >74ba :     
    powof............... >74c8 :     
    powret.............. >74c2 :     
    priend.............. >6a00 :     
    print1.............. >6998 :     
    print2.............. >69b0 :     
    print3.............. >69ca :     
    print5.............. >69da :     
    print6.............. >69e8 :     
    printe.............. >6a12 :     
    printr.............. >697e :     
    priret.............. >6a0e :     
    prtne1.............. >793c :     
    prtne2.............. >7946 :     
    prtneg.............. >792e :     
    prtner.............. >794c :     
    prtnum.............. >7920 :     
    r0.................. >0000 :     
    r1.................. >0001 :     
    r10................. >000a :     
    r11................. >000b :     
    r12................. >000c :     
    r13................. >000d :     
    r14................. >000e :     
    r15................. >000f :     
    r2.................. >0002 :     
    r3.................. >0003 :     
    r4.................. >0004 :     
    r5.................. >0005 :     
    r6.................. >0006 :     
    r7.................. >0007 :     
    r8.................. >0008 :     
    r9.................. >0009 :     
    rand1............... >8328 :     
    rand2............... >832a :     
    ready............... >7a04 :     
    retur1.............. >67b0 :     
    retur2.............. >67ca :     
    retur3.............. >67d8 :     
    run1................ >6758 :     
    run2................ >675c :     
    rwgerr.............. >67e6 :     
    rwgmsg.............. >759a :     
    savadd.............. >83d2 :     
    savba1.............. >6d22 :     
    savbas.............. >6d06 :     
    savcls.............. >6d68 :     
    savdon.............. >6d54 :     
    saveer.............. >6d7a :     
    saveio.............. >6d72 :     
    savese.............. >6d76 :     
    savmem.............. >6cfe :     
    savvd1.............. >6cd4 :     
    savvd2.............. >6cdc :     
    scan................ >02b2 :     
    schar............... >7076 :     
    sclear.............. >712a :     
    sclr................ >6564 :     
    sclrdo.............. >6584 :     
    scolor.............. >7144 :     
    scroll.............. >2534 :     
    sdecre.............. >7034 :     
    sdpoke.............. >6aac :     
    send................ >67ee :     
    sfor................ >6880 :     
    sget................ >6a3c :     
    sgosub.............. >6764 :     
    sgoto............... >6760 :     
    shdwr1.............. >83d4 :     
    sif................. >67fa :     
    sincre.............. >702c :     
    sinit............... >71da :     
    sinput.............. >6a16 :     
    sjoyst.............. >72b0 :     
    slet................ >6e78 :     
    slist............... >65be :     
    sload............... >6ae8 :     
    slocat.............. >718c :     
    smagni.............. >7202 :     
    sndiq............... >73a2 :     
    snew................ >659a :     
    snext............... >690e :     
    snoise.............. >73a6 :     
    sound............... >8400 :     
    space............... >7ae7 :     
    spoke............... >6a76 :     
    sprint.............. >697a :     
    sprret.............. >72ac :     
    srem................ >6e68 :     
    sretur.............. >67ac :     
    srun................ >6738 :     
    ssave............... >6c4a :     
    ssave0.............. >6c7e :     
    ssave1.............. >6c8c :     
    sscree.............. >71c2 :     
    ssound.............. >7336 :     
    ssprit.............. >7224 :     
    ssys................ >6556 :     
    stable.............. >6012 :     
    stack............... >2000 :     
    stksiz.............. >0100 :     
    sub................. >7ba4 :     
    sublnk.............. >7af2 :     
    svpoke.............. >6ac6 :     
    swait............... >705e :     
    synerr.............. >750e :     
    synmsg.............. >7560 :     
    sysws............... >24e0 :     
    tadd................ >0098 :     
    taddr............... >00af :     
    tasc................ >00ae :     
    tbwand.............. >009e :     
    tbwor............... >00a0 :     
    tbwxor.............. >009f :     
    tchar............... >0087 :     
    tchr................ >00a5 :     
    tclear.............. >0088 :     
    tclr................ >0072 :     
    tcolor.............. >0089 :     
    tconst.............. >00b0 :     
    tdec................ >00e6 :     
    tdiv................ >009b :     
    tdpeek.............. >00a7 :     
    tdpoke.............. >0080 :     
    tempf1.............. >8338 :     
    tempf2.............. >833a :     
    tempf3.............. >833c :     
    tempf4.............. >833e :     
    tempf5.............. >8340 :     
    tend................ >0079 :     
    tequal.............. >0092 :     
    tfor................ >007b :     
    tget................ >007f :     
    tgosub.............. >0077 :     
    tgoto............... >0076 :     
    tgreat.............. >0096 :     
    tgtequ.............. >0094 :     
    tif................. >007a :     
    tinc................ >00cc :     
    tinit............... >008c :     
    tinput.............. >007e :     
    tjoyst.............. >008f :     
    tlast............... >00b0 :     
    tlen................ >00ab :     
    tlesst.............. >0097 :     
    tlet................ >00b1 :     
    tlist............... >0074 :     
    tload............... >0083 :     
    tlocat.............. >008a :     
    tltequ.............. >0095 :     
    tmagni.............. >008d :     
    tmod................ >009c :     
    tmult............... >009a :     
    tnew................ >0073 :     
    tnext............... >007c :     
    tnoise.............. >0091 :     
    tnot................ >00a6 :     
    tokadr.............. >637e :     
    tokar0.............. >63d8 :     
    tokar1.............. >63e0 :     
    tokar2.............. >63ec :     
    tokar3.............. >63f6 :     
    tokar4.............. >6418 :     
    tokar5.............. >6442 :     
    tokar6.............. >646c :     
    tokar7.............. >646e :     
    tokarg.............. >63d8 :     
    tokde1.............. >63c0 :     
    tokde2.............. >63d0 :     
    tokdec.............. >638a :     
    tokdel.............. >63ac :     
    tokend.............. >64ca :     
    toker1.............. >62e2 :     
    tokerr.............. >63d4 :     
    tokfn1.............. >6476 :     
    tokfn2.............. >647a :     
    tokfn3.............. >6482 :     
    tokfn4.............. >648e :     
    tokfn5.............. >64aa :     
    tokimm.............. >6544 :     
    tokinc.............. >6390 :     
    tokize.............. >628e :     
    tokl................ >62e4 :     
    toklet.............. >6396 :     
    toknd0.............. >64f0 :     
    toknd1.............. >64f2 :     
    toknd2.............. >6514 :     
    toknd3.............. >6516 :     
    toknum.............. >6424 :     
    tokoom.............. >6510 :     
    tokqu1.............. >63fe :     
    tokqu2.............. >6408 :     
    tokrem.............. >6370 :     
    tokrep.............. >6530 :     
    toksav.............. >64c2 :     
    tokst0.............. >62ba :     
    tokst1.............. >62c8 :     
    tokst2.............. >6308 :     
    tokst3.............. >633e :     
    tokst4.............. >6342 :     
    tokst5.............. >634a :     
    tokst6.............. >6356 :     
    tokst7.............. >6360 :     
    tokstt.............. >62b6 :     
    tokvar.............. >63a4 :     
    tpeek............... >00a9 :     
    tpoke............... >0082 :     
    tpower.............. >009d :     
    tprint.............. >007d :     
    trem................ >0085 :     
    tretur.............. >0078 :     
    trnd................ >00aa :     
    trun................ >0075 :     
    tsave............... >0084 :     
    tscree.............. >008b :     
    tshift.............. >00a1 :     
    tsound.............. >0090 :     
    tsprit.............. >008e :     
    tstep............... >00a4 :     
    tstr................ >00ac :     
    tsub................ >0099 :     
    tsys................ >0071 :     
    tthen............... >00a3 :     
    tto................. >00a2 :     
    tunequ.............. >0093 :     
    tval................ >00ad :     
    tvpeek.............. >00a8 :     
    tvpoke.............. >0081 :     
    twait............... >0086 :     
    txtbot.............. >a000 :     
    usmsg............... >758b :     
    utilws.............. >2536 :     
    varat............... >001a :     
    vars................ >2500 :     
    vdpbuf.............. >2200 :     
    vdpini.............. >7a0c :     
    vdpmode............. >0c08 :     
    vdppab.............. >373e :     
    vdprd............... >8800 :     
    vdpreg.............. >7b78 :     
    vdpsiz.............. >02e0 :     
    vdpsta.............. >8802 :     
    vdpwa............... >8c02 :     
    vdpwd............... >8c00 :     
    vmbr................ >7b24 :     
    vmbr2............... >7b32 :     
    vmbs................ >7b5a :     
    vmbs2............... >7b6e :     
    vmbw................ >7b3c :     
    vmbw2............... >7b50 :     
    vsbr................ >7af6 :     
    vsbw................ >7b0a :     
    vscrll.............. >7788 :     
    wait1............... >7066 :     
    wait2............... >706e :     
    waitr............... >7072 :     
